ARM GAS  C:\Users\ADMINI~1\AppData\Local\Temp\ccoVU43Z.s 			page 1


   1              		.cpu cortex-m0
   2              		.fpu softvfp
   3              		.eabi_attribute 20, 1
   4              		.eabi_attribute 21, 1
   5              		.eabi_attribute 23, 3
   6              		.eabi_attribute 24, 1
   7              		.eabi_attribute 25, 1
   8              		.eabi_attribute 26, 1
   9              		.eabi_attribute 30, 6
  10              		.eabi_attribute 34, 0
  11              		.eabi_attribute 18, 4
  12              		.code	16
  13              		.file	"Alert.c"
  14              		.text
  15              	.Ltext0:
  16              		.cfi_sections	.debug_frame
  17              		.global	alertLevel
  18              		.bss
  19              		.type	alertLevel, %object
  20              		.size	alertLevel, 1
  21              	alertLevel:
  22 0000 00       		.space	1
  23              		.section	.text.IasEventHandler,"ax",%progbits
  24              		.align	2
  25              		.global	IasEventHandler
  26              		.code	16
  27              		.thumb_func
  28              		.type	IasEventHandler, %function
  29              	IasEventHandler:
  30              	.LFB37:
  31              		.file 1 "Alert.c"
   1:Alert.c       **** /* ========================================
   2:Alert.c       ****  *
   3:Alert.c       ****  * Copyright YOUR COMPANY, THE YEAR
   4:Alert.c       ****  * All Rights Reserved
   5:Alert.c       ****  * UNPUBLISHED, LICENSED SOFTWARE.
   6:Alert.c       ****  *
   7:Alert.c       ****  * CONFIDENTIAL AND PROPRIETARY INFORMATION
   8:Alert.c       ****  * WHICH IS THE PROPERTY OF your company.
   9:Alert.c       ****  *
  10:Alert.c       ****  * ========================================
  11:Alert.c       **** */
  12:Alert.c       **** 
  13:Alert.c       **** #include <project.h>
  14:Alert.c       **** #include "Alert.h"
  15:Alert.c       **** 
  16:Alert.c       **** /* IAS alert level value */
  17:Alert.c       **** uint8 alertLevel = 0;
  18:Alert.c       **** 
  19:Alert.c       **** void IasEventHandler(uint32 event, void *eventParam)
  20:Alert.c       **** {
  32              		.loc 1 20 0
  33              		.cfi_startproc
  34 0000 80B5     		push	{r7, lr}
  35              		.cfi_def_cfa_offset 8
  36              		.cfi_offset 7, -8
  37              		.cfi_offset 14, -4
ARM GAS  C:\Users\ADMINI~1\AppData\Local\Temp\ccoVU43Z.s 			page 2


  38 0002 82B0     		sub	sp, sp, #8
  39              		.cfi_def_cfa_offset 16
  40 0004 00AF     		add	r7, sp, #0
  41              		.cfi_def_cfa_register 7
  42 0006 7860     		str	r0, [r7, #4]
  43 0008 3960     		str	r1, [r7]
  21:Alert.c       ****   
  22:Alert.c       ****     if(event == CYBLE_EVT_IASS_WRITE_CHAR_CMD)
  44              		.loc 1 22 0
  45 000a 7A68     		ldr	r2, [r7, #4]
  46 000c DE23     		mov	r3, #222
  47 000e 5B00     		lsl	r3, r3, #1
  48 0010 9A42     		cmp	r2, r3
  49 0012 05D1     		bne	.L1
  23:Alert.c       ****     {
  24:Alert.c       ****         CyBle_IassGetCharacteristicValue(CYBLE_IAS_ALERT_LEVEL, 
  50              		.loc 1 24 0
  51 0014 044B     		ldr	r3, .L3
  52 0016 0020     		mov	r0, #0
  53 0018 0121     		mov	r1, #1
  54 001a 1A1C     		mov	r2, r3
  55 001c FFF7FEFF 		bl	CyBle_IassGetCharacteristicValue
  56              	.L1:
  25:Alert.c       ****             sizeof(alertLevel), &alertLevel);
  26:Alert.c       ****     }
  27:Alert.c       **** }
  57              		.loc 1 27 0
  58 0020 BD46     		mov	sp, r7
  59 0022 02B0     		add	sp, sp, #8
  60              		@ sp needed
  61 0024 80BD     		pop	{r7, pc}
  62              	.L4:
  63 0026 C046     		.align	2
  64              	.L3:
  65 0028 00000000 		.word	alertLevel
  66              		.cfi_endproc
  67              	.LFE37:
  68              		.size	IasEventHandler, .-IasEventHandler
  69              		.text
  70              	.Letext0:
  71              		.file 2 "Generated_Source\\PSoC4/cytypes.h"
  72              		.file 3 "Generated_Source\\PSoC4/BLE_AT_Stack.h"
  73              		.file 4 "Generated_Source\\PSoC4/BLE_AT_ias.h"
  74              		.file 5 "Generated_Source\\PSoC4/BLE_AT_eventHandler.h"