ARM GAS  C:\Users\ADMINI~1\AppData\Local\Temp\ccg2Q2nK.s 			page 1


   1              		.cpu cortex-m0
   2              		.fpu softvfp
   3              		.eabi_attribute 20, 1
   4              		.eabi_attribute 21, 1
   5              		.eabi_attribute 23, 3
   6              		.eabi_attribute 24, 1
   7              		.eabi_attribute 25, 1
   8              		.eabi_attribute 26, 1
   9              		.eabi_attribute 30, 6
  10              		.eabi_attribute 34, 0
  11              		.eabi_attribute 18, 4
  12              		.code	16
  13              		.file	"BLE_1_ias.c"
  14              		.text
  15              	.Ltext0:
  16              		.cfi_sections	.debug_frame
  17              		.bss
  18              		.align	2
  19              	CyBle_IasApplCallback:
  20 0000 00000000 		.space	4
  21              		.global	cyBle_iass
  22              		.section	.rodata
  23              		.align	2
  24              		.type	cyBle_iass, %object
  25              		.size	cyBle_iass, 4
  26              	cyBle_iass:
  27 0000 1000     		.short	16
  28 0002 1200     		.short	18
  29              		.section	.text.CyBle_IasInit,"ax",%progbits
  30              		.align	2
  31              		.global	CyBle_IasInit
  32              		.code	16
  33              		.thumb_func
  34              		.type	CyBle_IasInit, %function
  35              	CyBle_IasInit:
  36              	.LFB2:
  37              		.file 1 "Generated_Source\\PSoC4\\BLE_1_ias.c"
   1:Generated_Source\PSoC4/BLE_1_ias.c **** /***************************************************************************//**
   2:Generated_Source\PSoC4/BLE_1_ias.c **** * \file CYBLE_ias.c
   3:Generated_Source\PSoC4/BLE_1_ias.c **** * \version 3.30
   4:Generated_Source\PSoC4/BLE_1_ias.c **** * 
   5:Generated_Source\PSoC4/BLE_1_ias.c **** * \brief
   6:Generated_Source\PSoC4/BLE_1_ias.c **** *  This file contains the source code for the Immediate Alert Service of the BLE
   7:Generated_Source\PSoC4/BLE_1_ias.c **** *  Component.
   8:Generated_Source\PSoC4/BLE_1_ias.c **** * 
   9:Generated_Source\PSoC4/BLE_1_ias.c **** ********************************************************************************
  10:Generated_Source\PSoC4/BLE_1_ias.c **** * \copyright
  11:Generated_Source\PSoC4/BLE_1_ias.c **** * Copyright 2014-2016, Cypress Semiconductor Corporation.  All rights reserved.
  12:Generated_Source\PSoC4/BLE_1_ias.c **** * You may use this file only in accordance with the license, terms, conditions,
  13:Generated_Source\PSoC4/BLE_1_ias.c **** * disclaimers, and limitations in the end user license agreement accompanying
  14:Generated_Source\PSoC4/BLE_1_ias.c **** * the software package with which this file was provided.
  15:Generated_Source\PSoC4/BLE_1_ias.c **** *******************************************************************************/
  16:Generated_Source\PSoC4/BLE_1_ias.c **** 
  17:Generated_Source\PSoC4/BLE_1_ias.c **** 
  18:Generated_Source\PSoC4/BLE_1_ias.c **** #include "BLE_1_eventHandler.h"
  19:Generated_Source\PSoC4/BLE_1_ias.c **** 
  20:Generated_Source\PSoC4/BLE_1_ias.c **** 
ARM GAS  C:\Users\ADMINI~1\AppData\Local\Temp\ccg2Q2nK.s 			page 2


  21:Generated_Source\PSoC4/BLE_1_ias.c **** #ifdef CYBLE_IAS_SERVER
  22:Generated_Source\PSoC4/BLE_1_ias.c **** 
  23:Generated_Source\PSoC4/BLE_1_ias.c **** static CYBLE_CALLBACK_T CyBle_IasApplCallback = NULL;
  24:Generated_Source\PSoC4/BLE_1_ias.c **** 
  25:Generated_Source\PSoC4/BLE_1_ias.c **** #endif /* CYBLE_IAS_SERVER */
  26:Generated_Source\PSoC4/BLE_1_ias.c **** 
  27:Generated_Source\PSoC4/BLE_1_ias.c **** #ifdef CYBLE_IAS_SERVER
  28:Generated_Source\PSoC4/BLE_1_ias.c **** 
  29:Generated_Source\PSoC4/BLE_1_ias.c **** const CYBLE_IASS_T cyBle_iass =
  30:Generated_Source\PSoC4/BLE_1_ias.c **** {
  31:Generated_Source\PSoC4/BLE_1_ias.c ****     0x0010u,    /* Handle of the IAS service */
  32:Generated_Source\PSoC4/BLE_1_ias.c ****     0x0012u,    /* Handle of the Alert Level characteristic */
  33:Generated_Source\PSoC4/BLE_1_ias.c **** };
  34:Generated_Source\PSoC4/BLE_1_ias.c **** 
  35:Generated_Source\PSoC4/BLE_1_ias.c **** #endif /* (CYBLE_IAS_SERVER) */
  36:Generated_Source\PSoC4/BLE_1_ias.c **** 
  37:Generated_Source\PSoC4/BLE_1_ias.c **** #ifdef CYBLE_IAS_CLIENT
  38:Generated_Source\PSoC4/BLE_1_ias.c **** 
  39:Generated_Source\PSoC4/BLE_1_ias.c **** CYBLE_IASC_T cyBle_iasc;
  40:Generated_Source\PSoC4/BLE_1_ias.c **** 
  41:Generated_Source\PSoC4/BLE_1_ias.c **** #endif /* (CYBLE_IAS_CLIENT) */
  42:Generated_Source\PSoC4/BLE_1_ias.c **** 
  43:Generated_Source\PSoC4/BLE_1_ias.c **** 
  44:Generated_Source\PSoC4/BLE_1_ias.c **** /****************************************************************************** 
  45:Generated_Source\PSoC4/BLE_1_ias.c **** * Function Name: CyBle_IasInit
  46:Generated_Source\PSoC4/BLE_1_ias.c **** ***************************************************************************//**
  47:Generated_Source\PSoC4/BLE_1_ias.c **** * 
  48:Generated_Source\PSoC4/BLE_1_ias.c **** *  This function initializes the Immediate Alert Service.
  49:Generated_Source\PSoC4/BLE_1_ias.c **** * 
  50:Generated_Source\PSoC4/BLE_1_ias.c **** ******************************************************************************/
  51:Generated_Source\PSoC4/BLE_1_ias.c **** void CyBle_IasInit(void)
  52:Generated_Source\PSoC4/BLE_1_ias.c **** {
  38              		.loc 1 52 0
  39              		.cfi_startproc
  40 0000 80B5     		push	{r7, lr}
  41              		.cfi_def_cfa_offset 8
  42              		.cfi_offset 7, -8
  43              		.cfi_offset 14, -4
  44 0002 00AF     		add	r7, sp, #0
  45              		.cfi_def_cfa_register 7
  53:Generated_Source\PSoC4/BLE_1_ias.c **** #ifdef CYBLE_IAS_CLIENT
  54:Generated_Source\PSoC4/BLE_1_ias.c **** 
  55:Generated_Source\PSoC4/BLE_1_ias.c ****     if(cyBle_serverInfo[CYBLE_SRVI_IAS].range.startHandle == CYBLE_GATT_INVALID_ATTR_HANDLE_VALUE)
  56:Generated_Source\PSoC4/BLE_1_ias.c ****     {
  57:Generated_Source\PSoC4/BLE_1_ias.c ****         cyBle_iasc.alertLevelChar.valueHandle = CYBLE_GATT_INVALID_ATTR_HANDLE_VALUE;
  58:Generated_Source\PSoC4/BLE_1_ias.c ****     }
  59:Generated_Source\PSoC4/BLE_1_ias.c **** 
  60:Generated_Source\PSoC4/BLE_1_ias.c **** #endif /* (CYBLE_IAS_CLIENT) */
  61:Generated_Source\PSoC4/BLE_1_ias.c **** }
  46              		.loc 1 61 0
  47 0004 BD46     		mov	sp, r7
  48              		@ sp needed
  49 0006 80BD     		pop	{r7, pc}
  50              		.cfi_endproc
  51              	.LFE2:
  52              		.size	CyBle_IasInit, .-CyBle_IasInit
  53              		.section	.text.CyBle_IasRegisterAttrCallback,"ax",%progbits
ARM GAS  C:\Users\ADMINI~1\AppData\Local\Temp\ccg2Q2nK.s 			page 3


  54              		.align	2
  55              		.global	CyBle_IasRegisterAttrCallback
  56              		.code	16
  57              		.thumb_func
  58              		.type	CyBle_IasRegisterAttrCallback, %function
  59              	CyBle_IasRegisterAttrCallback:
  60              	.LFB3:
  62:Generated_Source\PSoC4/BLE_1_ias.c **** 
  63:Generated_Source\PSoC4/BLE_1_ias.c **** 
  64:Generated_Source\PSoC4/BLE_1_ias.c **** #ifdef CYBLE_IAS_SERVER
  65:Generated_Source\PSoC4/BLE_1_ias.c **** 
  66:Generated_Source\PSoC4/BLE_1_ias.c **** /****************************************************************************** 
  67:Generated_Source\PSoC4/BLE_1_ias.c **** * Function Name: CyBle_IasRegisterAttrCallback
  68:Generated_Source\PSoC4/BLE_1_ias.c **** ***************************************************************************//**
  69:Generated_Source\PSoC4/BLE_1_ias.c **** * 
  70:Generated_Source\PSoC4/BLE_1_ias.c **** *  Registers callback function for service specific attribute operations.
  71:Generated_Source\PSoC4/BLE_1_ias.c **** *  Service specific write requests from peer device will not be handled with
  72:Generated_Source\PSoC4/BLE_1_ias.c **** *  unregistered callback function.
  73:Generated_Source\PSoC4/BLE_1_ias.c **** * 
  74:Generated_Source\PSoC4/BLE_1_ias.c **** *  \param callbackFunc: An application layer event callback function to receive 
  75:Generated_Source\PSoC4/BLE_1_ias.c **** *                     events from the BLE Component. The definition of 
  76:Generated_Source\PSoC4/BLE_1_ias.c **** *                     CYBLE_CALLBACK_T for IAS Service is: \n
  77:Generated_Source\PSoC4/BLE_1_ias.c **** *                     typedef void (* CYBLE_CALLBACK_T) (uint32 eventCode, 
  78:Generated_Source\PSoC4/BLE_1_ias.c **** *                                                        void *eventParam)
  79:Generated_Source\PSoC4/BLE_1_ias.c **** *                     * eventCode indicates the event that triggered this 
  80:Generated_Source\PSoC4/BLE_1_ias.c **** *                       callback (e.g. CYBLE_EVT_IASS_NOTIFICATION_ENABLED).
  81:Generated_Source\PSoC4/BLE_1_ias.c **** *                     * eventParam contains the parameters corresponding to the 
  82:Generated_Source\PSoC4/BLE_1_ias.c **** *                       current event. (e.g. pointer to CYBLE_IAS_CHAR_VALUE_T
  83:Generated_Source\PSoC4/BLE_1_ias.c **** *                       structure that contains details of the characteristic 
  84:Generated_Source\PSoC4/BLE_1_ias.c **** *                       for which notification enabled event was triggered).
  85:Generated_Source\PSoC4/BLE_1_ias.c **** *
  86:Generated_Source\PSoC4/BLE_1_ias.c **** * \sideeffect
  87:Generated_Source\PSoC4/BLE_1_ias.c **** *  The *eventParams in the callback function should not be used by the
  88:Generated_Source\PSoC4/BLE_1_ias.c **** *  application once the callback function execution is finished. Otherwise 
  89:Generated_Source\PSoC4/BLE_1_ias.c **** *  this data may become corrupted.\n
  90:Generated_Source\PSoC4/BLE_1_ias.c **** *  <b>Note</b>:
  91:Generated_Source\PSoC4/BLE_1_ias.c **** *  IAS only has events for the GATT server. There are no events for the GATT 
  92:Generated_Source\PSoC4/BLE_1_ias.c **** *  client since the client sends data without waiting for response. Therefore 
  93:Generated_Source\PSoC4/BLE_1_ias.c **** *  there is no need to register a callback through CyBle_IasRegisterAttrCallback
  94:Generated_Source\PSoC4/BLE_1_ias.c **** *  for an IAS GATT client.
  95:Generated_Source\PSoC4/BLE_1_ias.c **** * 
  96:Generated_Source\PSoC4/BLE_1_ias.c **** ******************************************************************************/
  97:Generated_Source\PSoC4/BLE_1_ias.c **** void CyBle_IasRegisterAttrCallback(CYBLE_CALLBACK_T callbackFunc)
  98:Generated_Source\PSoC4/BLE_1_ias.c **** {
  61              		.loc 1 98 0
  62              		.cfi_startproc
  63 0000 80B5     		push	{r7, lr}
  64              		.cfi_def_cfa_offset 8
  65              		.cfi_offset 7, -8
  66              		.cfi_offset 14, -4
  67 0002 82B0     		sub	sp, sp, #8
  68              		.cfi_def_cfa_offset 16
  69 0004 00AF     		add	r7, sp, #0
  70              		.cfi_def_cfa_register 7
  71 0006 7860     		str	r0, [r7, #4]
  99:Generated_Source\PSoC4/BLE_1_ias.c ****     CyBle_IasApplCallback = callbackFunc;
  72              		.loc 1 99 0
ARM GAS  C:\Users\ADMINI~1\AppData\Local\Temp\ccg2Q2nK.s 			page 4


  73 0008 024B     		ldr	r3, .L3
  74 000a 7A68     		ldr	r2, [r7, #4]
  75 000c 1A60     		str	r2, [r3]
 100:Generated_Source\PSoC4/BLE_1_ias.c **** }
  76              		.loc 1 100 0
  77 000e BD46     		mov	sp, r7
  78 0010 02B0     		add	sp, sp, #8
  79              		@ sp needed
  80 0012 80BD     		pop	{r7, pc}
  81              	.L4:
  82              		.align	2
  83              	.L3:
  84 0014 00000000 		.word	CyBle_IasApplCallback
  85              		.cfi_endproc
  86              	.LFE3:
  87              		.size	CyBle_IasRegisterAttrCallback, .-CyBle_IasRegisterAttrCallback
  88              		.section	.text.CyBle_IassDisconnectEventHandler,"ax",%progbits
  89              		.align	2
  90              		.global	CyBle_IassDisconnectEventHandler
  91              		.code	16
  92              		.thumb_func
  93              		.type	CyBle_IassDisconnectEventHandler, %function
  94              	CyBle_IassDisconnectEventHandler:
  95              	.LFB4:
 101:Generated_Source\PSoC4/BLE_1_ias.c **** 
 102:Generated_Source\PSoC4/BLE_1_ias.c **** 
 103:Generated_Source\PSoC4/BLE_1_ias.c **** /****************************************************************************** 
 104:Generated_Source\PSoC4/BLE_1_ias.c **** * Function Name: CyBle_IassDisconnectEventHandler
 105:Generated_Source\PSoC4/BLE_1_ias.c **** ***************************************************************************//**
 106:Generated_Source\PSoC4/BLE_1_ias.c **** * 
 107:Generated_Source\PSoC4/BLE_1_ias.c **** *  Handles the Disconnection Indication Event for the Immediate Alert service.
 108:Generated_Source\PSoC4/BLE_1_ias.c **** * 
 109:Generated_Source\PSoC4/BLE_1_ias.c **** ******************************************************************************/
 110:Generated_Source\PSoC4/BLE_1_ias.c **** void CyBle_IassDisconnectEventHandler(void)
 111:Generated_Source\PSoC4/BLE_1_ias.c **** {
  96              		.loc 1 111 0
  97              		.cfi_startproc
  98 0000 80B5     		push	{r7, lr}
  99              		.cfi_def_cfa_offset 8
 100              		.cfi_offset 7, -8
 101              		.cfi_offset 14, -4
 102 0002 84B0     		sub	sp, sp, #16
 103              		.cfi_def_cfa_offset 24
 104 0004 00AF     		add	r7, sp, #0
 105              		.cfi_def_cfa_register 7
 112:Generated_Source\PSoC4/BLE_1_ias.c ****     uint8 tmpAlertLevel = CYBLE_NO_ALERT;
 106              		.loc 1 112 0
 107 0006 0F23     		mov	r3, #15
 108 0008 FB18     		add	r3, r7, r3
 109 000a 0022     		mov	r2, #0
 110 000c 1A70     		strb	r2, [r3]
 113:Generated_Source\PSoC4/BLE_1_ias.c ****     CYBLE_GATT_HANDLE_VALUE_PAIR_T handleVal;
 114:Generated_Source\PSoC4/BLE_1_ias.c ****     
 115:Generated_Source\PSoC4/BLE_1_ias.c ****     handleVal.attrHandle = cyBle_iass.alertLevelCharHandle;
 111              		.loc 1 115 0
 112 000e 1222     		mov	r2, #18
 113 0010 3B1C     		mov	r3, r7
ARM GAS  C:\Users\ADMINI~1\AppData\Local\Temp\ccg2Q2nK.s 			page 5


 114 0012 1A81     		strh	r2, [r3, #8]
 116:Generated_Source\PSoC4/BLE_1_ias.c ****     handleVal.value.val = &tmpAlertLevel;
 115              		.loc 1 116 0
 116 0014 3B1C     		mov	r3, r7
 117 0016 0F22     		mov	r2, #15
 118 0018 BA18     		add	r2, r7, r2
 119 001a 1A60     		str	r2, [r3]
 117:Generated_Source\PSoC4/BLE_1_ias.c ****     handleVal.value.len = CYBLE_IAS_ALERT_LEVEL_SIZE;
 120              		.loc 1 117 0
 121 001c 3B1C     		mov	r3, r7
 122 001e 0122     		mov	r2, #1
 123 0020 9A80     		strh	r2, [r3, #4]
 118:Generated_Source\PSoC4/BLE_1_ias.c ****     
 119:Generated_Source\PSoC4/BLE_1_ias.c ****     /* Set alert level to "No Alert" per IAS spec */
 120:Generated_Source\PSoC4/BLE_1_ias.c ****     (void) CyBle_GattsWriteAttributeValue(&handleVal, 0u, NULL, CYBLE_GATT_DB_LOCALLY_INITIATED);
 124              		.loc 1 120 0
 125 0022 3B1C     		mov	r3, r7
 126 0024 181C     		mov	r0, r3
 127 0026 0021     		mov	r1, #0
 128 0028 0022     		mov	r2, #0
 129 002a 0023     		mov	r3, #0
 130 002c FFF7FEFF 		bl	CyBle_GattsWriteAttributeValue
 121:Generated_Source\PSoC4/BLE_1_ias.c **** }
 131              		.loc 1 121 0
 132 0030 BD46     		mov	sp, r7
 133 0032 04B0     		add	sp, sp, #16
 134              		@ sp needed
 135 0034 80BD     		pop	{r7, pc}
 136              		.cfi_endproc
 137              	.LFE4:
 138              		.size	CyBle_IassDisconnectEventHandler, .-CyBle_IassDisconnectEventHandler
 139 0036 C046     		.section	.text.CyBle_IassWriteCmdEventHandler,"ax",%progbits
 140              		.align	2
 141              		.global	CyBle_IassWriteCmdEventHandler
 142              		.code	16
 143              		.thumb_func
 144              		.type	CyBle_IassWriteCmdEventHandler, %function
 145              	CyBle_IassWriteCmdEventHandler:
 146              	.LFB5:
 122:Generated_Source\PSoC4/BLE_1_ias.c **** 
 123:Generated_Source\PSoC4/BLE_1_ias.c **** 
 124:Generated_Source\PSoC4/BLE_1_ias.c **** /****************************************************************************** 
 125:Generated_Source\PSoC4/BLE_1_ias.c **** * Function Name: CyBle_IassWriteCmdEventHandler
 126:Generated_Source\PSoC4/BLE_1_ias.c **** ***************************************************************************//**
 127:Generated_Source\PSoC4/BLE_1_ias.c **** * 
 128:Generated_Source\PSoC4/BLE_1_ias.c **** *  Handles the Write Without Response Request Event for the Immediate Alert 
 129:Generated_Source\PSoC4/BLE_1_ias.c **** *  Service.
 130:Generated_Source\PSoC4/BLE_1_ias.c **** * 
 131:Generated_Source\PSoC4/BLE_1_ias.c **** *  \param CYBLE_GATTS_WRITE_CMD_REQ_PARAM_T * eventParam: The pointer to a data structure
 132:Generated_Source\PSoC4/BLE_1_ias.c **** *                                                    specified by the event.
 133:Generated_Source\PSoC4/BLE_1_ias.c **** * 
 134:Generated_Source\PSoC4/BLE_1_ias.c **** ******************************************************************************/
 135:Generated_Source\PSoC4/BLE_1_ias.c **** void CyBle_IassWriteCmdEventHandler(CYBLE_GATTS_WRITE_CMD_REQ_PARAM_T *eventParam)
 136:Generated_Source\PSoC4/BLE_1_ias.c **** {
 147              		.loc 1 136 0
 148              		.cfi_startproc
 149 0000 80B5     		push	{r7, lr}
ARM GAS  C:\Users\ADMINI~1\AppData\Local\Temp\ccg2Q2nK.s 			page 6


 150              		.cfi_def_cfa_offset 8
 151              		.cfi_offset 7, -8
 152              		.cfi_offset 14, -4
 153 0002 84B0     		sub	sp, sp, #16
 154              		.cfi_def_cfa_offset 24
 155 0004 00AF     		add	r7, sp, #0
 156              		.cfi_def_cfa_register 7
 157 0006 7860     		str	r0, [r7, #4]
 137:Generated_Source\PSoC4/BLE_1_ias.c ****     CYBLE_IAS_CHAR_VALUE_T wrCmdParam;
 138:Generated_Source\PSoC4/BLE_1_ias.c ****     
 139:Generated_Source\PSoC4/BLE_1_ias.c ****     if(NULL != CyBle_IasApplCallback)
 158              		.loc 1 139 0
 159 0008 1F4B     		ldr	r3, .L8
 160 000a 1B68     		ldr	r3, [r3]
 161 000c 002B     		cmp	r3, #0
 162 000e 37D0     		beq	.L6
 140:Generated_Source\PSoC4/BLE_1_ias.c ****     {
 141:Generated_Source\PSoC4/BLE_1_ias.c ****         /* Check if attribute handle is handle of Alert Level characteristic of
 142:Generated_Source\PSoC4/BLE_1_ias.c ****            Immediate Alert service. */
 143:Generated_Source\PSoC4/BLE_1_ias.c ****         if((cyBle_iass.alertLevelCharHandle == eventParam->handleValPair.attrHandle) &&
 163              		.loc 1 143 0
 164 0010 1222     		mov	r2, #18
 165 0012 7B68     		ldr	r3, [r7, #4]
 166 0014 9B89     		ldrh	r3, [r3, #12]
 167 0016 9A42     		cmp	r2, r3
 168 0018 32D1     		bne	.L6
 144:Generated_Source\PSoC4/BLE_1_ias.c ****             (eventParam->handleValPair.value.len == CYBLE_IAS_ALERT_LEVEL_SIZE) &&
 169              		.loc 1 144 0 discriminator 1
 170 001a 7B68     		ldr	r3, [r7, #4]
 171 001c 1B89     		ldrh	r3, [r3, #8]
 143:Generated_Source\PSoC4/BLE_1_ias.c ****             (eventParam->handleValPair.value.len == CYBLE_IAS_ALERT_LEVEL_SIZE) &&
 172              		.loc 1 143 0 discriminator 1
 173 001e 012B     		cmp	r3, #1
 174 0020 2ED1     		bne	.L6
 145:Generated_Source\PSoC4/BLE_1_ias.c ****                 (eventParam->handleValPair.value.val[0u] <= CYBLE_HIGH_ALERT))
 175              		.loc 1 145 0
 176 0022 7B68     		ldr	r3, [r7, #4]
 177 0024 5B68     		ldr	r3, [r3, #4]
 178 0026 1B78     		ldrb	r3, [r3]
 144:Generated_Source\PSoC4/BLE_1_ias.c ****             (eventParam->handleValPair.value.len == CYBLE_IAS_ALERT_LEVEL_SIZE) &&
 179              		.loc 1 144 0
 180 0028 022B     		cmp	r3, #2
 181 002a 29D8     		bhi	.L6
 146:Generated_Source\PSoC4/BLE_1_ias.c ****         {   
 147:Generated_Source\PSoC4/BLE_1_ias.c ****             /* Input parameters validation passed, so save Alert Level */
 148:Generated_Source\PSoC4/BLE_1_ias.c ****             if(CyBle_GattsWriteAttributeValue(&eventParam->handleValPair, 
 182              		.loc 1 148 0
 183 002c 7B68     		ldr	r3, [r7, #4]
 184 002e 1A1D     		add	r2, r3, #4
 185 0030 7B68     		ldr	r3, [r7, #4]
 186 0032 101C     		mov	r0, r2
 187 0034 0021     		mov	r1, #0
 188 0036 1A1C     		mov	r2, r3
 189 0038 4023     		mov	r3, #64
 190 003a FFF7FEFF 		bl	CyBle_GattsWriteAttributeValue
 191 003e 031E     		sub	r3, r0, #0
 192 0040 1ED1     		bne	.L6
ARM GAS  C:\Users\ADMINI~1\AppData\Local\Temp\ccg2Q2nK.s 			page 7


 149:Generated_Source\PSoC4/BLE_1_ias.c ****                                                0u, 
 150:Generated_Source\PSoC4/BLE_1_ias.c ****                                                &eventParam->connHandle,
 151:Generated_Source\PSoC4/BLE_1_ias.c ****                                                CYBLE_GATT_DB_PEER_INITIATED) == CYBLE_GATT_ERR_NONE
 152:Generated_Source\PSoC4/BLE_1_ias.c ****             {
 153:Generated_Source\PSoC4/BLE_1_ias.c ****                 wrCmdParam.connHandle = eventParam->connHandle;
 193              		.loc 1 153 0
 194 0042 0823     		mov	r3, #8
 195 0044 FB18     		add	r3, r7, r3
 196 0046 7A68     		ldr	r2, [r7, #4]
 197 0048 1288     		ldrh	r2, [r2]
 198 004a 1A80     		strh	r2, [r3]
 154:Generated_Source\PSoC4/BLE_1_ias.c ****                 wrCmdParam.charIndex = CYBLE_IAS_ALERT_LEVEL;
 199              		.loc 1 154 0
 200 004c 0823     		mov	r3, #8
 201 004e FB18     		add	r3, r7, r3
 202 0050 0022     		mov	r2, #0
 203 0052 9A70     		strb	r2, [r3, #2]
 155:Generated_Source\PSoC4/BLE_1_ias.c ****                 wrCmdParam.value = &eventParam->handleValPair.value;
 204              		.loc 1 155 0
 205 0054 7B68     		ldr	r3, [r7, #4]
 206 0056 1A1D     		add	r2, r3, #4
 207 0058 0823     		mov	r3, #8
 208 005a FB18     		add	r3, r7, r3
 209 005c 5A60     		str	r2, [r3, #4]
 156:Generated_Source\PSoC4/BLE_1_ias.c ****                 
 157:Generated_Source\PSoC4/BLE_1_ias.c ****                 /* Send callback to user if no error occurred while writing Alert Level */
 158:Generated_Source\PSoC4/BLE_1_ias.c ****                 CyBle_IasApplCallback((uint32) CYBLE_EVT_IASS_WRITE_CHAR_CMD, (void *) &wrCmdParam)
 210              		.loc 1 158 0
 211 005e 0A4B     		ldr	r3, .L8
 212 0060 1B68     		ldr	r3, [r3]
 213 0062 DE22     		mov	r2, #222
 214 0064 5100     		lsl	r1, r2, #1
 215 0066 0822     		mov	r2, #8
 216 0068 BA18     		add	r2, r7, r2
 217 006a 081C     		mov	r0, r1
 218 006c 111C     		mov	r1, r2
 219 006e 9847     		blx	r3
 159:Generated_Source\PSoC4/BLE_1_ias.c ****                 cyBle_eventHandlerFlag &= (uint8) (~CYBLE_CALLBACK);
 220              		.loc 1 159 0
 221 0070 064B     		ldr	r3, .L8+4
 222 0072 1B78     		ldrb	r3, [r3]
 223 0074 DBB2     		uxtb	r3, r3
 224 0076 0122     		mov	r2, #1
 225 0078 9343     		bic	r3, r2
 226 007a DAB2     		uxtb	r2, r3
 227 007c 034B     		ldr	r3, .L8+4
 228 007e 1A70     		strb	r2, [r3]
 229              	.L6:
 160:Generated_Source\PSoC4/BLE_1_ias.c ****             }
 161:Generated_Source\PSoC4/BLE_1_ias.c ****         }
 162:Generated_Source\PSoC4/BLE_1_ias.c ****         /* As this handler handles Write Without Response request the error response
 163:Generated_Source\PSoC4/BLE_1_ias.c ****           can't be sent for the Client. The erroneous value will be with
 164:Generated_Source\PSoC4/BLE_1_ias.c ****           CYBLE_EVT_GATTS_WRITE_CMD_REQ event. User will decide how to handle it. */
 165:Generated_Source\PSoC4/BLE_1_ias.c ****     }
 166:Generated_Source\PSoC4/BLE_1_ias.c **** }
 230              		.loc 1 166 0
 231 0080 BD46     		mov	sp, r7
ARM GAS  C:\Users\ADMINI~1\AppData\Local\Temp\ccg2Q2nK.s 			page 8


 232 0082 04B0     		add	sp, sp, #16
 233              		@ sp needed
 234 0084 80BD     		pop	{r7, pc}
 235              	.L9:
 236 0086 C046     		.align	2
 237              	.L8:
 238 0088 00000000 		.word	CyBle_IasApplCallback
 239 008c 00000000 		.word	cyBle_eventHandlerFlag
 240              		.cfi_endproc
 241              	.LFE5:
 242              		.size	CyBle_IassWriteCmdEventHandler, .-CyBle_IassWriteCmdEventHandler
 243              		.section	.text.CyBle_IassGetCharacteristicValue,"ax",%progbits
 244              		.align	2
 245              		.global	CyBle_IassGetCharacteristicValue
 246              		.code	16
 247              		.thumb_func
 248              		.type	CyBle_IassGetCharacteristicValue, %function
 249              	CyBle_IassGetCharacteristicValue:
 250              	.LFB6:
 167:Generated_Source\PSoC4/BLE_1_ias.c **** 
 168:Generated_Source\PSoC4/BLE_1_ias.c **** 
 169:Generated_Source\PSoC4/BLE_1_ias.c **** /****************************************************************************** 
 170:Generated_Source\PSoC4/BLE_1_ias.c **** * Function Name: CyBle_IassGetCharacteristicValue
 171:Generated_Source\PSoC4/BLE_1_ias.c **** ***************************************************************************//**
 172:Generated_Source\PSoC4/BLE_1_ias.c **** * 
 173:Generated_Source\PSoC4/BLE_1_ias.c **** *  Gets the Alert Level characteristic value of the service, which is identified
 174:Generated_Source\PSoC4/BLE_1_ias.c **** *  by charIndex.
 175:Generated_Source\PSoC4/BLE_1_ias.c **** * 
 176:Generated_Source\PSoC4/BLE_1_ias.c **** *  \param charIndex: The index of the Alert Level characteristic.
 177:Generated_Source\PSoC4/BLE_1_ias.c **** *  \param attrSize: The size of the Alert Level characteristic value attribute.
 178:Generated_Source\PSoC4/BLE_1_ias.c **** *  \param attrValue: The pointer to the location where the Alert Level characteristic
 179:Generated_Source\PSoC4/BLE_1_ias.c **** *               value data should be stored.
 180:Generated_Source\PSoC4/BLE_1_ias.c **** * 
 181:Generated_Source\PSoC4/BLE_1_ias.c **** * \return
 182:Generated_Source\PSoC4/BLE_1_ias.c **** *  Return value is of type CYBLE_API_RESULT_T.
 183:Generated_Source\PSoC4/BLE_1_ias.c **** *   * CYBLE_ERROR_OK - The characteristic value was read successfully
 184:Generated_Source\PSoC4/BLE_1_ias.c **** *   * CYBLE_ERROR_INVALID_PARAMETER - Validation of the input parameters failed
 185:Generated_Source\PSoC4/BLE_1_ias.c **** *
 186:Generated_Source\PSoC4/BLE_1_ias.c **** ******************************************************************************/
 187:Generated_Source\PSoC4/BLE_1_ias.c **** CYBLE_API_RESULT_T CyBle_IassGetCharacteristicValue(CYBLE_IAS_CHAR_INDEX_T charIndex, uint8 attrSiz
 188:Generated_Source\PSoC4/BLE_1_ias.c **** {
 251              		.loc 1 188 0
 252              		.cfi_startproc
 253 0000 80B5     		push	{r7, lr}
 254              		.cfi_def_cfa_offset 8
 255              		.cfi_offset 7, -8
 256              		.cfi_offset 14, -4
 257 0002 86B0     		sub	sp, sp, #24
 258              		.cfi_def_cfa_offset 32
 259 0004 00AF     		add	r7, sp, #0
 260              		.cfi_def_cfa_register 7
 261 0006 3A60     		str	r2, [r7]
 262 0008 FB1D     		add	r3, r7, #7
 263 000a 021C     		add	r2, r0, #0
 264 000c 1A70     		strb	r2, [r3]
 265 000e BB1D     		add	r3, r7, #6
 266 0010 0A1C     		add	r2, r1, #0
ARM GAS  C:\Users\ADMINI~1\AppData\Local\Temp\ccg2Q2nK.s 			page 9


 267 0012 1A70     		strb	r2, [r3]
 189:Generated_Source\PSoC4/BLE_1_ias.c ****     CYBLE_GATT_HANDLE_VALUE_PAIR_T iasHandleValuePair;
 190:Generated_Source\PSoC4/BLE_1_ias.c ****     CYBLE_API_RESULT_T apiResult = CYBLE_ERROR_INVALID_PARAMETER;
 268              		.loc 1 190 0
 269 0014 1623     		mov	r3, #22
 270 0016 FB18     		add	r3, r7, r3
 271 0018 0122     		mov	r2, #1
 272 001a 1A80     		strh	r2, [r3]
 191:Generated_Source\PSoC4/BLE_1_ias.c **** 
 192:Generated_Source\PSoC4/BLE_1_ias.c ****     if((attrValue != NULL) && (charIndex == CYBLE_IAS_ALERT_LEVEL) && (attrSize == CYBLE_IAS_ALERT_
 273              		.loc 1 192 0
 274 001c 3B68     		ldr	r3, [r7]
 275 001e 002B     		cmp	r3, #0
 276 0020 22D0     		beq	.L11
 277              		.loc 1 192 0 is_stmt 0 discriminator 1
 278 0022 FB1D     		add	r3, r7, #7
 279 0024 1B78     		ldrb	r3, [r3]
 280 0026 002B     		cmp	r3, #0
 281 0028 1ED1     		bne	.L11
 282              		.loc 1 192 0 discriminator 2
 283 002a BB1D     		add	r3, r7, #6
 284 002c 1B78     		ldrb	r3, [r3]
 285 002e 012B     		cmp	r3, #1
 286 0030 1AD1     		bne	.L11
 193:Generated_Source\PSoC4/BLE_1_ias.c ****     {
 194:Generated_Source\PSoC4/BLE_1_ias.c ****         iasHandleValuePair.attrHandle = cyBle_iass.alertLevelCharHandle;
 287              		.loc 1 194 0 is_stmt 1
 288 0032 1222     		mov	r2, #18
 289 0034 0823     		mov	r3, #8
 290 0036 FB18     		add	r3, r7, r3
 291 0038 1A81     		strh	r2, [r3, #8]
 195:Generated_Source\PSoC4/BLE_1_ias.c ****         iasHandleValuePair.value.len = attrSize;
 292              		.loc 1 195 0
 293 003a BB1D     		add	r3, r7, #6
 294 003c 1B78     		ldrb	r3, [r3]
 295 003e 9AB2     		uxth	r2, r3
 296 0040 0823     		mov	r3, #8
 297 0042 FB18     		add	r3, r7, r3
 298 0044 9A80     		strh	r2, [r3, #4]
 196:Generated_Source\PSoC4/BLE_1_ias.c ****         iasHandleValuePair.value.val = attrValue;
 299              		.loc 1 196 0
 300 0046 0823     		mov	r3, #8
 301 0048 FB18     		add	r3, r7, r3
 302 004a 3A68     		ldr	r2, [r7]
 303 004c 1A60     		str	r2, [r3]
 197:Generated_Source\PSoC4/BLE_1_ias.c ****         
 198:Generated_Source\PSoC4/BLE_1_ias.c ****         /* Get Alert Level characteristic value from GATT database */
 199:Generated_Source\PSoC4/BLE_1_ias.c ****         if(CyBle_GattsReadAttributeValue(&iasHandleValuePair, NULL, CYBLE_GATT_DB_LOCALLY_INITIATED
 304              		.loc 1 199 0
 305 004e 0823     		mov	r3, #8
 306 0050 FB18     		add	r3, r7, r3
 307 0052 181C     		mov	r0, r3
 308 0054 0021     		mov	r1, #0
 309 0056 0022     		mov	r2, #0
 310 0058 FFF7FEFF 		bl	CyBle_GattsReadAttributeValue
 311 005c 031E     		sub	r3, r0, #0
 312 005e 03D1     		bne	.L11
ARM GAS  C:\Users\ADMINI~1\AppData\Local\Temp\ccg2Q2nK.s 			page 10


 200:Generated_Source\PSoC4/BLE_1_ias.c ****         {
 201:Generated_Source\PSoC4/BLE_1_ias.c ****             /* Indicate success */
 202:Generated_Source\PSoC4/BLE_1_ias.c ****             apiResult = CYBLE_ERROR_OK;
 313              		.loc 1 202 0
 314 0060 1623     		mov	r3, #22
 315 0062 FB18     		add	r3, r7, r3
 316 0064 0022     		mov	r2, #0
 317 0066 1A80     		strh	r2, [r3]
 318              	.L11:
 203:Generated_Source\PSoC4/BLE_1_ias.c ****         }
 204:Generated_Source\PSoC4/BLE_1_ias.c ****     }
 205:Generated_Source\PSoC4/BLE_1_ias.c **** 
 206:Generated_Source\PSoC4/BLE_1_ias.c ****     /* Return status */
 207:Generated_Source\PSoC4/BLE_1_ias.c ****     return(apiResult);
 319              		.loc 1 207 0
 320 0068 1623     		mov	r3, #22
 321 006a FB18     		add	r3, r7, r3
 322 006c 1B88     		ldrh	r3, [r3]
 208:Generated_Source\PSoC4/BLE_1_ias.c **** }
 323              		.loc 1 208 0
 324 006e 181C     		mov	r0, r3
 325 0070 BD46     		mov	sp, r7
 326 0072 06B0     		add	sp, sp, #24
 327              		@ sp needed
 328 0074 80BD     		pop	{r7, pc}
 329              		.cfi_endproc
 330              	.LFE6:
 331              		.size	CyBle_IassGetCharacteristicValue, .-CyBle_IassGetCharacteristicValue
 332 0076 C046     		.text
 333              	.Letext0:
 334              		.file 2 "Generated_Source\\PSoC4\\cytypes.h"
 335              		.file 3 "Generated_Source\\PSoC4\\BLE_1_Stack.h"
 336              		.file 4 "Generated_Source\\PSoC4\\BLE_1_StackGatt.h"
 337              		.file 5 "Generated_Source\\PSoC4\\BLE_1_StackGattServer.h"
 338              		.file 6 "Generated_Source\\PSoC4\\BLE_1.h"
 339              		.file 7 "Generated_Source\\PSoC4\\BLE_1_ias.h"
 340              		.file 8 "Generated_Source\\PSoC4\\BLE_1_eventHandler.h"