ARM GAS  C:\Users\ADMINI~1\AppData\Local\Temp\cc51aZ2O.s 			page 1


   1              		.cpu cortex-m0
   2              		.fpu softvfp
   3              		.eabi_attribute 20, 1
   4              		.eabi_attribute 21, 1
   5              		.eabi_attribute 23, 3
   6              		.eabi_attribute 24, 1
   7              		.eabi_attribute 25, 1
   8              		.eabi_attribute 26, 1
   9              		.eabi_attribute 30, 6
  10              		.eabi_attribute 34, 0
  11              		.eabi_attribute 18, 4
  12              		.code	16
  13              		.file	"LED.c"
  14              		.text
  15              	.Ltext0:
  16              		.cfi_sections	.debug_frame
  17              		.section	.text.LED_ON,"ax",%progbits
  18              		.align	2
  19              		.global	LED_ON
  20              		.code	16
  21              		.thumb_func
  22              		.type	LED_ON, %function
  23              	LED_ON:
  24              	.LFB37:
  25              		.file 1 "LED.c"
   1:LED.c         **** #include "led.h"
   2:LED.c         **** 
   3:LED.c         **** void LED_ON(int16_t color)
   4:LED.c         **** {
  26              		.loc 1 4 0
  27              		.cfi_startproc
  28 0000 80B5     		push	{r7, lr}
  29              		.cfi_def_cfa_offset 8
  30              		.cfi_offset 7, -8
  31              		.cfi_offset 14, -4
  32 0002 82B0     		sub	sp, sp, #8
  33              		.cfi_def_cfa_offset 16
  34 0004 00AF     		add	r7, sp, #0
  35              		.cfi_def_cfa_register 7
  36 0006 021C     		mov	r2, r0
  37 0008 BB1D     		add	r3, r7, #6
  38 000a 1A80     		strh	r2, [r3]
   5:LED.c         ****    
   6:LED.c         ****     switch (color)
  39              		.loc 1 6 0
  40 000c BB1D     		add	r3, r7, #6
  41 000e 0022     		mov	r2, #0
  42 0010 9B5E     		ldrsh	r3, [r3, r2]
  43 0012 472B     		cmp	r3, #71
  44 0014 04D0     		beq	.L3
  45 0016 522B     		cmp	r3, #82
  46 0018 0AD0     		beq	.L4
  47 001a 422B     		cmp	r3, #66
  48 001c 04D0     		beq	.L5
   7:LED.c         ****   {
   8:LED.c         ****     case(G):
   9:LED.c         ****       LED_1_Write(0);
ARM GAS  C:\Users\ADMINI~1\AppData\Local\Temp\cc51aZ2O.s 			page 2


  10:LED.c         ****       break;
  11:LED.c         ****     case(B):
  12:LED.c         ****       LED_2_Write(0);
  13:LED.c         ****       break;
  14:LED.c         ****     case(R):
  15:LED.c         ****       LED_3_Write(0);
  16:LED.c         ****       break;
  17:LED.c         ****     default:
  18:LED.c         ****       break;
  49              		.loc 1 18 0
  50 001e 0BE0     		b	.L1
  51              	.L3:
   9:LED.c         ****       break;
  52              		.loc 1 9 0
  53 0020 0020     		mov	r0, #0
  54 0022 FFF7FEFF 		bl	LED_1_Write
  10:LED.c         ****     case(B):
  55              		.loc 1 10 0
  56 0026 07E0     		b	.L1
  57              	.L5:
  12:LED.c         ****       break;
  58              		.loc 1 12 0
  59 0028 0020     		mov	r0, #0
  60 002a FFF7FEFF 		bl	LED_2_Write
  13:LED.c         ****     case(R):
  61              		.loc 1 13 0
  62 002e 03E0     		b	.L1
  63              	.L4:
  15:LED.c         ****       break;
  64              		.loc 1 15 0
  65 0030 0020     		mov	r0, #0
  66 0032 FFF7FEFF 		bl	LED_3_Write
  16:LED.c         ****     default:
  67              		.loc 1 16 0
  68 0036 C046     		mov	r8, r8
  69              	.L1:
  19:LED.c         ****   }
  20:LED.c         **** }
  70              		.loc 1 20 0
  71 0038 BD46     		mov	sp, r7
  72 003a 02B0     		add	sp, sp, #8
  73              		@ sp needed
  74 003c 80BD     		pop	{r7, pc}
  75              		.cfi_endproc
  76              	.LFE37:
  77              		.size	LED_ON, .-LED_ON
  78 003e C046     		.section	.text.LED_OFF,"ax",%progbits
  79              		.align	2
  80              		.global	LED_OFF
  81              		.code	16
  82              		.thumb_func
  83              		.type	LED_OFF, %function
  84              	LED_OFF:
  85              	.LFB38:
  21:LED.c         **** void LED_OFF(int16_t color)
  22:LED.c         **** {
  86              		.loc 1 22 0
ARM GAS  C:\Users\ADMINI~1\AppData\Local\Temp\cc51aZ2O.s 			page 3


  87              		.cfi_startproc
  88 0000 80B5     		push	{r7, lr}
  89              		.cfi_def_cfa_offset 8
  90              		.cfi_offset 7, -8
  91              		.cfi_offset 14, -4
  92 0002 82B0     		sub	sp, sp, #8
  93              		.cfi_def_cfa_offset 16
  94 0004 00AF     		add	r7, sp, #0
  95              		.cfi_def_cfa_register 7
  96 0006 021C     		mov	r2, r0
  97 0008 BB1D     		add	r3, r7, #6
  98 000a 1A80     		strh	r2, [r3]
  23:LED.c         ****     switch (color)
  99              		.loc 1 23 0
 100 000c BB1D     		add	r3, r7, #6
 101 000e 0022     		mov	r2, #0
 102 0010 9B5E     		ldrsh	r3, [r3, r2]
 103 0012 472B     		cmp	r3, #71
 104 0014 04D0     		beq	.L9
 105 0016 522B     		cmp	r3, #82
 106 0018 0AD0     		beq	.L10
 107 001a 422B     		cmp	r3, #66
 108 001c 04D0     		beq	.L11
  24:LED.c         ****   {
  25:LED.c         ****     case(G):
  26:LED.c         ****       LED_1_Write(1);
  27:LED.c         ****       break;
  28:LED.c         ****     case(B):
  29:LED.c         ****       LED_2_Write(1);
  30:LED.c         ****       break;
  31:LED.c         ****     case(R):
  32:LED.c         ****       LED_3_Write(1);
  33:LED.c         ****       break;
  34:LED.c         ****     default:
  35:LED.c         ****       break;
 109              		.loc 1 35 0
 110 001e 0BE0     		b	.L7
 111              	.L9:
  26:LED.c         ****       break;
 112              		.loc 1 26 0
 113 0020 0120     		mov	r0, #1
 114 0022 FFF7FEFF 		bl	LED_1_Write
  27:LED.c         ****     case(B):
 115              		.loc 1 27 0
 116 0026 07E0     		b	.L7
 117              	.L11:
  29:LED.c         ****       break;
 118              		.loc 1 29 0
 119 0028 0120     		mov	r0, #1
 120 002a FFF7FEFF 		bl	LED_2_Write
  30:LED.c         ****     case(R):
 121              		.loc 1 30 0
 122 002e 03E0     		b	.L7
 123              	.L10:
  32:LED.c         ****       break;
 124              		.loc 1 32 0
 125 0030 0120     		mov	r0, #1
ARM GAS  C:\Users\ADMINI~1\AppData\Local\Temp\cc51aZ2O.s 			page 4


 126 0032 FFF7FEFF 		bl	LED_3_Write
  33:LED.c         ****     default:
 127              		.loc 1 33 0
 128 0036 C046     		mov	r8, r8
 129              	.L7:
  36:LED.c         ****   }
  37:LED.c         **** }
 130              		.loc 1 37 0
 131 0038 BD46     		mov	sp, r7
 132 003a 02B0     		add	sp, sp, #8
 133              		@ sp needed
 134 003c 80BD     		pop	{r7, pc}
 135              		.cfi_endproc
 136              	.LFE38:
 137              		.size	LED_OFF, .-LED_OFF
 138 003e C046     		.section	.text.LED,"ax",%progbits
 139              		.align	2
 140              		.global	LED
 141              		.code	16
 142              		.thumb_func
 143              		.type	LED, %function
 144              	LED:
 145              	.LFB39:
  38:LED.c         **** void LED(int16_t color,int8_t power)
  39:LED.c         **** {
 146              		.loc 1 39 0
 147              		.cfi_startproc
 148 0000 80B5     		push	{r7, lr}
 149              		.cfi_def_cfa_offset 8
 150              		.cfi_offset 7, -8
 151              		.cfi_offset 14, -4
 152 0002 82B0     		sub	sp, sp, #8
 153              		.cfi_def_cfa_offset 16
 154 0004 00AF     		add	r7, sp, #0
 155              		.cfi_def_cfa_register 7
 156 0006 021C     		mov	r2, r0
 157 0008 BB1D     		add	r3, r7, #6
 158 000a 1A80     		strh	r2, [r3]
 159 000c 7B1D     		add	r3, r7, #5
 160 000e 0A1C     		add	r2, r1, #0
 161 0010 1A70     		strb	r2, [r3]
  40:LED.c         ****     switch (color)
 162              		.loc 1 40 0
 163 0012 BB1D     		add	r3, r7, #6
 164 0014 0022     		mov	r2, #0
 165 0016 9B5E     		ldrsh	r3, [r3, r2]
 166 0018 472B     		cmp	r3, #71
 167 001a 04D0     		beq	.L15
 168 001c 522B     		cmp	r3, #82
 169 001e 1CD0     		beq	.L16
 170 0020 422B     		cmp	r3, #66
 171 0022 0DD0     		beq	.L17
  41:LED.c         ****   {
  42:LED.c         ****     case(G):
  43:LED.c         ****      if(power==ON)
  44:LED.c         ****       LED_1_Write(0);
  45:LED.c         ****       else
ARM GAS  C:\Users\ADMINI~1\AppData\Local\Temp\cc51aZ2O.s 			page 5


  46:LED.c         ****       LED_1_Write(1);
  47:LED.c         ****       break;
  48:LED.c         ****     case(B):
  49:LED.c         ****     if(power==ON)
  50:LED.c         ****       LED_2_Write(0);
  51:LED.c         ****      else  
  52:LED.c         ****       LED_2_Write(1);
  53:LED.c         ****       break;
  54:LED.c         ****     case(R):
  55:LED.c         ****     if(power==ON)
  56:LED.c         ****       LED_3_Write(0);
  57:LED.c         ****     else
  58:LED.c         ****        LED_3_Write(1);
  59:LED.c         ****       break;
  60:LED.c         ****     
  61:LED.c         ****     default:
  62:LED.c         ****       break;
 172              		.loc 1 62 0
 173 0024 26E0     		b	.L13
 174              	.L15:
  43:LED.c         ****       LED_1_Write(0);
 175              		.loc 1 43 0
 176 0026 7B1D     		add	r3, r7, #5
 177 0028 1B78     		ldrb	r3, [r3]
 178 002a 5BB2     		sxtb	r3, r3
 179 002c 002B     		cmp	r3, #0
 180 002e 03D1     		bne	.L18
  44:LED.c         ****       else
 181              		.loc 1 44 0
 182 0030 0020     		mov	r0, #0
 183 0032 FFF7FEFF 		bl	LED_1_Write
  47:LED.c         ****     case(B):
 184              		.loc 1 47 0
 185 0036 1DE0     		b	.L13
 186              	.L18:
  46:LED.c         ****       break;
 187              		.loc 1 46 0
 188 0038 0120     		mov	r0, #1
 189 003a FFF7FEFF 		bl	LED_1_Write
  47:LED.c         ****     case(B):
 190              		.loc 1 47 0
 191 003e 19E0     		b	.L13
 192              	.L17:
  49:LED.c         ****       LED_2_Write(0);
 193              		.loc 1 49 0
 194 0040 7B1D     		add	r3, r7, #5
 195 0042 1B78     		ldrb	r3, [r3]
 196 0044 5BB2     		sxtb	r3, r3
 197 0046 002B     		cmp	r3, #0
 198 0048 03D1     		bne	.L21
  50:LED.c         ****      else  
 199              		.loc 1 50 0
 200 004a 0020     		mov	r0, #0
 201 004c FFF7FEFF 		bl	LED_2_Write
  53:LED.c         ****     case(R):
 202              		.loc 1 53 0
 203 0050 10E0     		b	.L13
ARM GAS  C:\Users\ADMINI~1\AppData\Local\Temp\cc51aZ2O.s 			page 6


 204              	.L21:
  52:LED.c         ****       break;
 205              		.loc 1 52 0
 206 0052 0120     		mov	r0, #1
 207 0054 FFF7FEFF 		bl	LED_2_Write
  53:LED.c         ****     case(R):
 208              		.loc 1 53 0
 209 0058 0CE0     		b	.L13
 210              	.L16:
  55:LED.c         ****       LED_3_Write(0);
 211              		.loc 1 55 0
 212 005a 7B1D     		add	r3, r7, #5
 213 005c 1B78     		ldrb	r3, [r3]
 214 005e 5BB2     		sxtb	r3, r3
 215 0060 002B     		cmp	r3, #0
 216 0062 03D1     		bne	.L23
  56:LED.c         ****     else
 217              		.loc 1 56 0
 218 0064 0020     		mov	r0, #0
 219 0066 FFF7FEFF 		bl	LED_3_Write
  59:LED.c         ****     
 220              		.loc 1 59 0
 221 006a 02E0     		b	.L25
 222              	.L23:
  58:LED.c         ****       break;
 223              		.loc 1 58 0
 224 006c 0120     		mov	r0, #1
 225 006e FFF7FEFF 		bl	LED_3_Write
 226              	.L25:
  59:LED.c         ****     
 227              		.loc 1 59 0
 228 0072 C046     		mov	r8, r8
 229              	.L13:
  63:LED.c         ****   }
  64:LED.c         **** }...
 230              		.loc 1 64 0
 231 0074 BD46     		mov	sp, r7
 232 0076 02B0     		add	sp, sp, #8
 233              		@ sp needed
 234 0078 80BD     		pop	{r7, pc}
 235              		.cfi_endproc
 236              	.LFE39:
 237              		.size	LED, .-LED
 238 007a C046     		.text
 239              	.Letext0:
 240              		.file 2 "d:\\program files (x86)\\cypress\\psoc creator\\4.0\\psoc creator\\import\\gnu\\arm\\4.9.
 241              		.file 3 "d:\\program files (x86)\\cypress\\psoc creator\\4.0\\psoc creator\\import\\gnu\\arm\\4.9.