ARM GAS  C:\Users\ADMINI~1\AppData\Local\Temp\ccm4aAxG.s 			page 1


   1              		.cpu cortex-m0
   2              		.fpu softvfp
   3              		.eabi_attribute 20, 1
   4              		.eabi_attribute 21, 1
   5              		.eabi_attribute 23, 3
   6              		.eabi_attribute 24, 1
   7              		.eabi_attribute 25, 1
   8              		.eabi_attribute 26, 1
   9              		.eabi_attribute 30, 6
  10              		.eabi_attribute 34, 0
  11              		.eabi_attribute 18, 4
  12              		.code	16
  13              		.file	"main.c"
  14              		.text
  15              	.Ltext0:
  16              		.cfi_sections	.debug_frame
  17              		.section	.text.main,"ax",%progbits
  18              		.align	2
  19              		.global	main
  20              		.code	16
  21              		.thumb_func
  22              		.type	main, %function
  23              	main:
  24              	.LFB37:
  25              		.file 1 "main.c"
   1:main.c        **** /* ========================================
   2:main.c        ****  *
   3:main.c        ****  * Copyright YOUR COMPANY, THE YEAR
   4:main.c        ****  * All Rights Reserved
   5:main.c        ****  * UNPUBLISHED, LICENSED SOFTWARE.
   6:main.c        ****  *
   7:main.c        ****  * CONFIDENTIAL AND PROPRIETARY INFORMATION
   8:main.c        ****  * WHICH IS THE PROPERTY OF your company.
   9:main.c        ****  *
  10:main.c        ****  * ========================================
  11:main.c        **** */
  12:main.c        **** #include <project.h>
  13:main.c        **** #include "led.h"
  14:main.c        **** 
  15:main.c        **** void AT_init(void);
  16:main.c        **** 
  17:main.c        **** int main()
  18:main.c        **** {
  26              		.loc 1 18 0
  27              		.cfi_startproc
  28 0000 80B5     		push	{r7, lr}
  29              		.cfi_def_cfa_offset 8
  30              		.cfi_offset 7, -8
  31              		.cfi_offset 14, -4
  32 0002 00AF     		add	r7, sp, #0
  33              		.cfi_def_cfa_register 7
  19:main.c        ****      AT_init();
  34              		.loc 1 19 0
  35 0004 FFF7FEFF 		bl	AT_init
  20:main.c        ****      CyGlobalIntEnable; 
  36              		.loc 1 20 0
  37              	@ 20 "main.c" 1
ARM GAS  C:\Users\ADMINI~1\AppData\Local\Temp\ccm4aAxG.s 			page 2


  38 0008 62B6     		CPSIE   i
  39              	@ 0 "" 2
  40              		.code	16
  41              	.L2:
  21:main.c        ****     for(;;)
  22:main.c        ****     {
  23:main.c        **** 
  24:main.c        ****       
  25:main.c        ****     }
  42              		.loc 1 25 0 discriminator 1
  43 000a FEE7     		b	.L2
  44              		.cfi_endproc
  45              	.LFE37:
  46              		.size	main, .-main
  47              		.section	.rodata
  48              		.align	2
  49              	.LC0:
  50 0000 54657374 		.ascii	"Test for AT\000"
  50      20666F72 
  50      20415400 
  51              		.section	.text.AT_init,"ax",%progbits
  52              		.align	2
  53              		.global	AT_init
  54              		.code	16
  55              		.thumb_func
  56              		.type	AT_init, %function
  57              	AT_init:
  58              	.LFB38:
  26:main.c        **** }
  27:main.c        **** 
  28:main.c        **** void AT_init(void)
  29:main.c        **** {
  59              		.loc 1 29 0
  60              		.cfi_startproc
  61 0000 80B5     		push	{r7, lr}
  62              		.cfi_def_cfa_offset 8
  63              		.cfi_offset 7, -8
  64              		.cfi_offset 14, -4
  65 0002 00AF     		add	r7, sp, #0
  66              		.cfi_def_cfa_register 7
  30:main.c        ****     UART_AT_Start();
  67              		.loc 1 30 0
  68 0004 FFF7FEFF 		bl	UART_AT_Start
  31:main.c        ****     UART_AT_SCB_IRQ_Start();
  69              		.loc 1 31 0
  70 0008 FFF7FEFF 		bl	UART_AT_SCB_IRQ_Start
  32:main.c        ****     UART_AT_UartPutString("Test for AT");
  71              		.loc 1 32 0
  72 000c 074B     		ldr	r3, .L4
  73 000e 181C     		mov	r0, r3
  74 0010 FFF7FEFF 		bl	UART_AT_UartPutString
  33:main.c        ****     LED_OFF(R);
  75              		.loc 1 33 0
  76 0014 5220     		mov	r0, #82
  77 0016 FFF7FEFF 		bl	LED_OFF
  34:main.c        ****     LED_OFF(G);
  78              		.loc 1 34 0
ARM GAS  C:\Users\ADMINI~1\AppData\Local\Temp\ccm4aAxG.s 			page 3


  79 001a 4720     		mov	r0, #71
  80 001c FFF7FEFF 		bl	LED_OFF
  35:main.c        ****     LED_OFF(B);
  81              		.loc 1 35 0
  82 0020 4220     		mov	r0, #66
  83 0022 FFF7FEFF 		bl	LED_OFF
  36:main.c        ****     //CyDelay(1000u);
  37:main.c        ****  
  38:main.c        ****   }
  84              		.loc 1 38 0
  85 0026 BD46     		mov	sp, r7
  86              		@ sp needed
  87 0028 80BD     		pop	{r7, pc}
  88              	.L5:
  89 002a C046     		.align	2
  90              	.L4:
  91 002c 00000000 		.word	.LC0
  92              		.cfi_endproc
  93              	.LFE38:
  94              		.size	AT_init, .-AT_init
  95              		.section	.text.UART_AT_SCB_IRQ_Interrupt,"ax",%progbits
  96              		.align	2
  97              		.global	UART_AT_SCB_IRQ_Interrupt
  98              		.code	16
  99              		.thumb_func
 100              		.type	UART_AT_SCB_IRQ_Interrupt, %function
 101              	UART_AT_SCB_IRQ_Interrupt:
 102              	.LFB39:
  39:main.c        **** 
  40:main.c        **** 
  41:main.c        **** 
  42:main.c        **** ////////////////Interrupt///////////////////////////
  43:main.c        **** /*******************************************************************************
  44:main.c        **** * Function Name: UART_AT_SCB_IRQ_Interrupt
  45:main.c        **** ********************************************************************************
  46:main.c        **** *
  47:main.c        **** * Summary:
  48:main.c        **** *
  49:main.c        **** * Parameters:  
  50:main.c        **** *   None
  51:main.c        **** *
  52:main.c        **** * Return:
  53:main.c        **** *   None
  54:main.c        **** *
  55:main.c        **** *******************************************************************************/
  56:main.c        **** CY_ISR(UART_AT_SCB_IRQ_Interrupt)
  57:main.c        **** {
 103              		.loc 1 57 0
 104              		.cfi_startproc
 105 0000 80B5     		push	{r7, lr}
 106              		.cfi_def_cfa_offset 8
 107              		.cfi_offset 7, -8
 108              		.cfi_offset 14, -4
 109 0002 82B0     		sub	sp, sp, #8
 110              		.cfi_def_cfa_offset 16
 111 0004 00AF     		add	r7, sp, #0
 112              		.cfi_def_cfa_register 7
ARM GAS  C:\Users\ADMINI~1\AppData\Local\Temp\ccm4aAxG.s 			page 4


  58:main.c        ****     #ifdef UART_AT_SCB_IRQ_INTERRUPT_INTERRUPT_CALLBACK
  59:main.c        ****         UART_AT_SCB_IRQ_Interrupt_InterruptCallback();
  60:main.c        ****     #endif /* UART_AT_SCB_IRQ_INTERRUPT_INTERRUPT_CALLBACK */ 
  61:main.c        **** 
  62:main.c        ****     /*  Place your Interrupt code here. */
  63:main.c        ****     /* `#START UART_AT_SCB_IRQ_Interrupt` */ 
  64:main.c        ****     UART_AT_ClearRxInterruptSource(UART_AT_INTR_RX_NOT_EMPTY);
 113              		.loc 1 64 0
 114 0006 0F4B     		ldr	r3, .L8
 115 0008 0422     		mov	r2, #4
 116 000a 1A60     		str	r2, [r3]
  65:main.c        ****     if(UART_AT_GetRxInterruptSourceMasked()&UART_AT_INTR_RX_NOT_EMPTY)
 117              		.loc 1 65 0
 118 000c 0E4B     		ldr	r3, .L8+4
 119 000e 1B68     		ldr	r3, [r3]
 120 0010 0422     		mov	r2, #4
 121 0012 1340     		and	r3, r2
 122 0014 10D0     		beq	.L7
 123              	.LBB2:
  66:main.c        ****     {
  67:main.c        ****         uint32 ReceviceData=0;
 124              		.loc 1 67 0
 125 0016 0023     		mov	r3, #0
 126 0018 7B60     		str	r3, [r7, #4]
  68:main.c        ****         ReceviceData=UART_AT_SpiUartReadRxData();
 127              		.loc 1 68 0
 128 001a FFF7FEFF 		bl	UART_AT_SpiUartReadRxData
 129 001e 031C     		mov	r3, r0
 130 0020 7B60     		str	r3, [r7, #4]
  69:main.c        ****         LED_ON(ReceviceData);
 131              		.loc 1 69 0
 132 0022 7B68     		ldr	r3, [r7, #4]
 133 0024 9BB2     		uxth	r3, r3
 134 0026 1BB2     		sxth	r3, r3
 135 0028 181C     		mov	r0, r3
 136 002a FFF7FEFF 		bl	LED_ON
  70:main.c        ****         UART_AT_UartPutChar((uint8_t)ReceviceData);
 137              		.loc 1 70 0
 138 002e 7B68     		ldr	r3, [r7, #4]
 139 0030 DBB2     		uxtb	r3, r3
 140 0032 181C     		mov	r0, r3
 141 0034 FFF7FEFF 		bl	UART_AT_SpiUartWriteTxData
 142              	.L7:
 143              	.LBE2:
  71:main.c        ****     }
  72:main.c        ****     UART_AT_SpiUartClearRxBuffer();  
 144              		.loc 1 72 0
 145 0038 FFF7FEFF 		bl	UART_AT_SpiUartClearRxBuffer
  73:main.c        ****     /* `#END` */
  74:main.c        **** }
 146              		.loc 1 74 0
 147 003c BD46     		mov	sp, r7
 148 003e 02B0     		add	sp, sp, #8
 149              		@ sp needed
 150 0040 80BD     		pop	{r7, pc}
 151              	.L9:
 152 0042 C046     		.align	2
ARM GAS  C:\Users\ADMINI~1\AppData\Local\Temp\ccm4aAxG.s 			page 5


 153              	.L8:
 154 0044 C00F2440 		.word	1076105152
 155 0048 CC0F2440 		.word	1076105164
 156              		.cfi_endproc
 157              	.LFE39:
 158              		.size	UART_AT_SCB_IRQ_Interrupt, .-UART_AT_SCB_IRQ_Interrupt
 159              		.text
 160              	.Letext0:
 161              		.file 2 "d:\\program files (x86)\\cypress\\psoc creator\\4.0\\psoc creator\\import\\gnu\\arm\\4.9.
 162              		.file 3 "d:\\program files (x86)\\cypress\\psoc creator\\4.0\\psoc creator\\import\\gnu\\arm\\4.9.
 163              		.file 4 "Generated_Source\\PSoC4/cytypes.h"