ARM GAS  C:\Users\ADMINI~1\AppData\Local\Temp\ccxwVqSg.s 			page 1


   1              		.cpu cortex-m0
   2              		.fpu softvfp
   3              		.eabi_attribute 20, 1
   4              		.eabi_attribute 21, 1
   5              		.eabi_attribute 23, 3
   6              		.eabi_attribute 24, 1
   7              		.eabi_attribute 25, 1
   8              		.eabi_attribute 26, 1
   9              		.eabi_attribute 30, 6
  10              		.eabi_attribute 34, 0
  11              		.eabi_attribute 18, 4
  12              		.code	16
  13              		.file	"UART_AT_SCB_IRQ.c"
  14              		.text
  15              	.Ltext0:
  16              		.cfi_sections	.debug_frame
  17              		.section	.text.UART_AT_SCB_IRQ_Start,"ax",%progbits
  18              		.align	2
  19              		.global	UART_AT_SCB_IRQ_Start
  20              		.code	16
  21              		.thumb_func
  22              		.type	UART_AT_SCB_IRQ_Start, %function
  23              	UART_AT_SCB_IRQ_Start:
  24              	.LFB2:
  25              		.file 1 "Generated_Source\\PSoC4\\UART_AT_SCB_IRQ.c"
   1:Generated_Source\PSoC4/UART_AT_SCB_IRQ.c **** /*******************************************************************************
   2:Generated_Source\PSoC4/UART_AT_SCB_IRQ.c **** * File Name: UART_AT_SCB_IRQ.c  
   3:Generated_Source\PSoC4/UART_AT_SCB_IRQ.c **** * Version 1.70
   4:Generated_Source\PSoC4/UART_AT_SCB_IRQ.c **** *
   5:Generated_Source\PSoC4/UART_AT_SCB_IRQ.c **** *  Description:
   6:Generated_Source\PSoC4/UART_AT_SCB_IRQ.c **** *   API for controlling the state of an interrupt.
   7:Generated_Source\PSoC4/UART_AT_SCB_IRQ.c **** *
   8:Generated_Source\PSoC4/UART_AT_SCB_IRQ.c **** *
   9:Generated_Source\PSoC4/UART_AT_SCB_IRQ.c **** *  Note:
  10:Generated_Source\PSoC4/UART_AT_SCB_IRQ.c **** *
  11:Generated_Source\PSoC4/UART_AT_SCB_IRQ.c **** ********************************************************************************
  12:Generated_Source\PSoC4/UART_AT_SCB_IRQ.c **** * Copyright 2008-2015, Cypress Semiconductor Corporation.  All rights reserved.
  13:Generated_Source\PSoC4/UART_AT_SCB_IRQ.c **** * You may use this file only in accordance with the license, terms, conditions, 
  14:Generated_Source\PSoC4/UART_AT_SCB_IRQ.c **** * disclaimers, and limitations in the end user license agreement accompanying 
  15:Generated_Source\PSoC4/UART_AT_SCB_IRQ.c **** * the software package with which this file was provided.
  16:Generated_Source\PSoC4/UART_AT_SCB_IRQ.c **** *******************************************************************************/
  17:Generated_Source\PSoC4/UART_AT_SCB_IRQ.c **** 
  18:Generated_Source\PSoC4/UART_AT_SCB_IRQ.c **** 
  19:Generated_Source\PSoC4/UART_AT_SCB_IRQ.c **** #include <cydevice_trm.h>
  20:Generated_Source\PSoC4/UART_AT_SCB_IRQ.c **** #include <CyLib.h>
  21:Generated_Source\PSoC4/UART_AT_SCB_IRQ.c **** #include <UART_AT_SCB_IRQ.h>
  22:Generated_Source\PSoC4/UART_AT_SCB_IRQ.c **** #include "cyapicallbacks.h"
  23:Generated_Source\PSoC4/UART_AT_SCB_IRQ.c **** 
  24:Generated_Source\PSoC4/UART_AT_SCB_IRQ.c **** #if !defined(UART_AT_SCB_IRQ__REMOVED) /* Check for removal by optimization */
  25:Generated_Source\PSoC4/UART_AT_SCB_IRQ.c **** 
  26:Generated_Source\PSoC4/UART_AT_SCB_IRQ.c **** /*******************************************************************************
  27:Generated_Source\PSoC4/UART_AT_SCB_IRQ.c **** *  Place your includes, defines and code here 
  28:Generated_Source\PSoC4/UART_AT_SCB_IRQ.c **** ********************************************************************************/
  29:Generated_Source\PSoC4/UART_AT_SCB_IRQ.c **** /* `#START UART_AT_SCB_IRQ_intc` */
  30:Generated_Source\PSoC4/UART_AT_SCB_IRQ.c **** 
  31:Generated_Source\PSoC4/UART_AT_SCB_IRQ.c **** /* `#END` */
  32:Generated_Source\PSoC4/UART_AT_SCB_IRQ.c **** 
ARM GAS  C:\Users\ADMINI~1\AppData\Local\Temp\ccxwVqSg.s 			page 2


  33:Generated_Source\PSoC4/UART_AT_SCB_IRQ.c **** extern cyisraddress CyRamVectors[CYINT_IRQ_BASE + CY_NUM_INTERRUPTS];
  34:Generated_Source\PSoC4/UART_AT_SCB_IRQ.c **** 
  35:Generated_Source\PSoC4/UART_AT_SCB_IRQ.c **** /* Declared in startup, used to set unused interrupts to. */
  36:Generated_Source\PSoC4/UART_AT_SCB_IRQ.c **** CY_ISR_PROTO(IntDefaultHandler);
  37:Generated_Source\PSoC4/UART_AT_SCB_IRQ.c **** 
  38:Generated_Source\PSoC4/UART_AT_SCB_IRQ.c **** 
  39:Generated_Source\PSoC4/UART_AT_SCB_IRQ.c **** /*******************************************************************************
  40:Generated_Source\PSoC4/UART_AT_SCB_IRQ.c **** * Function Name: UART_AT_SCB_IRQ_Start
  41:Generated_Source\PSoC4/UART_AT_SCB_IRQ.c **** ********************************************************************************
  42:Generated_Source\PSoC4/UART_AT_SCB_IRQ.c **** *
  43:Generated_Source\PSoC4/UART_AT_SCB_IRQ.c **** * Summary:
  44:Generated_Source\PSoC4/UART_AT_SCB_IRQ.c **** *  Set up the interrupt and enable it. This function disables the interrupt, 
  45:Generated_Source\PSoC4/UART_AT_SCB_IRQ.c **** *  sets the default interrupt vector, sets the priority from the value in the
  46:Generated_Source\PSoC4/UART_AT_SCB_IRQ.c **** *  Design Wide Resources Interrupt Editor, then enables the interrupt to the 
  47:Generated_Source\PSoC4/UART_AT_SCB_IRQ.c **** *  interrupt controller.
  48:Generated_Source\PSoC4/UART_AT_SCB_IRQ.c **** *
  49:Generated_Source\PSoC4/UART_AT_SCB_IRQ.c **** * Parameters:  
  50:Generated_Source\PSoC4/UART_AT_SCB_IRQ.c **** *   None
  51:Generated_Source\PSoC4/UART_AT_SCB_IRQ.c **** *
  52:Generated_Source\PSoC4/UART_AT_SCB_IRQ.c **** * Return:
  53:Generated_Source\PSoC4/UART_AT_SCB_IRQ.c **** *   None
  54:Generated_Source\PSoC4/UART_AT_SCB_IRQ.c **** *
  55:Generated_Source\PSoC4/UART_AT_SCB_IRQ.c **** *******************************************************************************/
  56:Generated_Source\PSoC4/UART_AT_SCB_IRQ.c **** void UART_AT_SCB_IRQ_Start(void)
  57:Generated_Source\PSoC4/UART_AT_SCB_IRQ.c **** {
  26              		.loc 1 57 0
  27              		.cfi_startproc
  28 0000 80B5     		push	{r7, lr}
  29              		.cfi_def_cfa_offset 8
  30              		.cfi_offset 7, -8
  31              		.cfi_offset 14, -4
  32 0002 00AF     		add	r7, sp, #0
  33              		.cfi_def_cfa_register 7
  58:Generated_Source\PSoC4/UART_AT_SCB_IRQ.c ****     /* For all we know the interrupt is active. */
  59:Generated_Source\PSoC4/UART_AT_SCB_IRQ.c ****     UART_AT_SCB_IRQ_Disable();
  34              		.loc 1 59 0
  35 0004 FFF7FEFF 		bl	UART_AT_SCB_IRQ_Disable
  60:Generated_Source\PSoC4/UART_AT_SCB_IRQ.c **** 
  61:Generated_Source\PSoC4/UART_AT_SCB_IRQ.c ****     /* Set the ISR to point to the UART_AT_SCB_IRQ Interrupt. */
  62:Generated_Source\PSoC4/UART_AT_SCB_IRQ.c ****     UART_AT_SCB_IRQ_SetVector(&UART_AT_SCB_IRQ_Interrupt);
  36              		.loc 1 62 0
  37 0008 054B     		ldr	r3, .L2
  38 000a 181C     		mov	r0, r3
  39 000c FFF7FEFF 		bl	UART_AT_SCB_IRQ_SetVector
  63:Generated_Source\PSoC4/UART_AT_SCB_IRQ.c **** 
  64:Generated_Source\PSoC4/UART_AT_SCB_IRQ.c ****     /* Set the priority. */
  65:Generated_Source\PSoC4/UART_AT_SCB_IRQ.c ****     UART_AT_SCB_IRQ_SetPriority((uint8)UART_AT_SCB_IRQ_INTC_PRIOR_NUMBER);
  40              		.loc 1 65 0
  41 0010 0320     		mov	r0, #3
  42 0012 FFF7FEFF 		bl	UART_AT_SCB_IRQ_SetPriority
  66:Generated_Source\PSoC4/UART_AT_SCB_IRQ.c **** 
  67:Generated_Source\PSoC4/UART_AT_SCB_IRQ.c ****     /* Enable it. */
  68:Generated_Source\PSoC4/UART_AT_SCB_IRQ.c ****     UART_AT_SCB_IRQ_Enable();
  43              		.loc 1 68 0
  44 0016 FFF7FEFF 		bl	UART_AT_SCB_IRQ_Enable
  69:Generated_Source\PSoC4/UART_AT_SCB_IRQ.c **** }
  45              		.loc 1 69 0
ARM GAS  C:\Users\ADMINI~1\AppData\Local\Temp\ccxwVqSg.s 			page 3


  46 001a BD46     		mov	sp, r7
  47              		@ sp needed
  48 001c 80BD     		pop	{r7, pc}
  49              	.L3:
  50 001e C046     		.align	2
  51              	.L2:
  52 0020 00000000 		.word	UART_AT_SCB_IRQ_Interrupt
  53              		.cfi_endproc
  54              	.LFE2:
  55              		.size	UART_AT_SCB_IRQ_Start, .-UART_AT_SCB_IRQ_Start
  56              		.section	.text.UART_AT_SCB_IRQ_StartEx,"ax",%progbits
  57              		.align	2
  58              		.global	UART_AT_SCB_IRQ_StartEx
  59              		.code	16
  60              		.thumb_func
  61              		.type	UART_AT_SCB_IRQ_StartEx, %function
  62              	UART_AT_SCB_IRQ_StartEx:
  63              	.LFB3:
  70:Generated_Source\PSoC4/UART_AT_SCB_IRQ.c **** 
  71:Generated_Source\PSoC4/UART_AT_SCB_IRQ.c **** 
  72:Generated_Source\PSoC4/UART_AT_SCB_IRQ.c **** /*******************************************************************************
  73:Generated_Source\PSoC4/UART_AT_SCB_IRQ.c **** * Function Name: UART_AT_SCB_IRQ_StartEx
  74:Generated_Source\PSoC4/UART_AT_SCB_IRQ.c **** ********************************************************************************
  75:Generated_Source\PSoC4/UART_AT_SCB_IRQ.c **** *
  76:Generated_Source\PSoC4/UART_AT_SCB_IRQ.c **** * Summary:
  77:Generated_Source\PSoC4/UART_AT_SCB_IRQ.c **** *  Sets up the interrupt and enables it. This function disables the interrupt,
  78:Generated_Source\PSoC4/UART_AT_SCB_IRQ.c **** *  sets the interrupt vector based on the address passed in, sets the priority 
  79:Generated_Source\PSoC4/UART_AT_SCB_IRQ.c **** *  from the value in the Design Wide Resources Interrupt Editor, then enables 
  80:Generated_Source\PSoC4/UART_AT_SCB_IRQ.c **** *  the interrupt to the interrupt controller.
  81:Generated_Source\PSoC4/UART_AT_SCB_IRQ.c **** *  
  82:Generated_Source\PSoC4/UART_AT_SCB_IRQ.c **** *  When defining ISR functions, the CY_ISR and CY_ISR_PROTO macros should be 
  83:Generated_Source\PSoC4/UART_AT_SCB_IRQ.c **** *  used to provide consistent definition across compilers:
  84:Generated_Source\PSoC4/UART_AT_SCB_IRQ.c **** *  
  85:Generated_Source\PSoC4/UART_AT_SCB_IRQ.c **** *  Function definition example:
  86:Generated_Source\PSoC4/UART_AT_SCB_IRQ.c **** *   CY_ISR(MyISR)
  87:Generated_Source\PSoC4/UART_AT_SCB_IRQ.c **** *   {
  88:Generated_Source\PSoC4/UART_AT_SCB_IRQ.c **** *   }
  89:Generated_Source\PSoC4/UART_AT_SCB_IRQ.c **** *   Function prototype example:
  90:Generated_Source\PSoC4/UART_AT_SCB_IRQ.c **** *   CY_ISR_PROTO(MyISR);
  91:Generated_Source\PSoC4/UART_AT_SCB_IRQ.c **** *
  92:Generated_Source\PSoC4/UART_AT_SCB_IRQ.c **** * Parameters:  
  93:Generated_Source\PSoC4/UART_AT_SCB_IRQ.c **** *   address: Address of the ISR to set in the interrupt vector table.
  94:Generated_Source\PSoC4/UART_AT_SCB_IRQ.c **** *
  95:Generated_Source\PSoC4/UART_AT_SCB_IRQ.c **** * Return:
  96:Generated_Source\PSoC4/UART_AT_SCB_IRQ.c **** *   None
  97:Generated_Source\PSoC4/UART_AT_SCB_IRQ.c **** *
  98:Generated_Source\PSoC4/UART_AT_SCB_IRQ.c **** *******************************************************************************/
  99:Generated_Source\PSoC4/UART_AT_SCB_IRQ.c **** void UART_AT_SCB_IRQ_StartEx(cyisraddress address)
 100:Generated_Source\PSoC4/UART_AT_SCB_IRQ.c **** {
  64              		.loc 1 100 0
  65              		.cfi_startproc
  66 0000 80B5     		push	{r7, lr}
  67              		.cfi_def_cfa_offset 8
  68              		.cfi_offset 7, -8
  69              		.cfi_offset 14, -4
  70 0002 82B0     		sub	sp, sp, #8
  71              		.cfi_def_cfa_offset 16
ARM GAS  C:\Users\ADMINI~1\AppData\Local\Temp\ccxwVqSg.s 			page 4


  72 0004 00AF     		add	r7, sp, #0
  73              		.cfi_def_cfa_register 7
  74 0006 7860     		str	r0, [r7, #4]
 101:Generated_Source\PSoC4/UART_AT_SCB_IRQ.c ****     /* For all we know the interrupt is active. */
 102:Generated_Source\PSoC4/UART_AT_SCB_IRQ.c ****     UART_AT_SCB_IRQ_Disable();
  75              		.loc 1 102 0
  76 0008 FFF7FEFF 		bl	UART_AT_SCB_IRQ_Disable
 103:Generated_Source\PSoC4/UART_AT_SCB_IRQ.c **** 
 104:Generated_Source\PSoC4/UART_AT_SCB_IRQ.c ****     /* Set the ISR to point to the UART_AT_SCB_IRQ Interrupt. */
 105:Generated_Source\PSoC4/UART_AT_SCB_IRQ.c ****     UART_AT_SCB_IRQ_SetVector(address);
  77              		.loc 1 105 0
  78 000c 7B68     		ldr	r3, [r7, #4]
  79 000e 181C     		mov	r0, r3
  80 0010 FFF7FEFF 		bl	UART_AT_SCB_IRQ_SetVector
 106:Generated_Source\PSoC4/UART_AT_SCB_IRQ.c **** 
 107:Generated_Source\PSoC4/UART_AT_SCB_IRQ.c ****     /* Set the priority. */
 108:Generated_Source\PSoC4/UART_AT_SCB_IRQ.c ****     UART_AT_SCB_IRQ_SetPriority((uint8)UART_AT_SCB_IRQ_INTC_PRIOR_NUMBER);
  81              		.loc 1 108 0
  82 0014 0320     		mov	r0, #3
  83 0016 FFF7FEFF 		bl	UART_AT_SCB_IRQ_SetPriority
 109:Generated_Source\PSoC4/UART_AT_SCB_IRQ.c **** 
 110:Generated_Source\PSoC4/UART_AT_SCB_IRQ.c ****     /* Enable it. */
 111:Generated_Source\PSoC4/UART_AT_SCB_IRQ.c ****     UART_AT_SCB_IRQ_Enable();
  84              		.loc 1 111 0
  85 001a FFF7FEFF 		bl	UART_AT_SCB_IRQ_Enable
 112:Generated_Source\PSoC4/UART_AT_SCB_IRQ.c **** }
  86              		.loc 1 112 0
  87 001e BD46     		mov	sp, r7
  88 0020 02B0     		add	sp, sp, #8
  89              		@ sp needed
  90 0022 80BD     		pop	{r7, pc}
  91              		.cfi_endproc
  92              	.LFE3:
  93              		.size	UART_AT_SCB_IRQ_StartEx, .-UART_AT_SCB_IRQ_StartEx
  94              		.section	.text.UART_AT_SCB_IRQ_Stop,"ax",%progbits
  95              		.align	2
  96              		.global	UART_AT_SCB_IRQ_Stop
  97              		.code	16
  98              		.thumb_func
  99              		.type	UART_AT_SCB_IRQ_Stop, %function
 100              	UART_AT_SCB_IRQ_Stop:
 101              	.LFB4:
 113:Generated_Source\PSoC4/UART_AT_SCB_IRQ.c **** 
 114:Generated_Source\PSoC4/UART_AT_SCB_IRQ.c **** 
 115:Generated_Source\PSoC4/UART_AT_SCB_IRQ.c **** /*******************************************************************************
 116:Generated_Source\PSoC4/UART_AT_SCB_IRQ.c **** * Function Name: UART_AT_SCB_IRQ_Stop
 117:Generated_Source\PSoC4/UART_AT_SCB_IRQ.c **** ********************************************************************************
 118:Generated_Source\PSoC4/UART_AT_SCB_IRQ.c **** *
 119:Generated_Source\PSoC4/UART_AT_SCB_IRQ.c **** * Summary:
 120:Generated_Source\PSoC4/UART_AT_SCB_IRQ.c **** *   Disables and removes the interrupt.
 121:Generated_Source\PSoC4/UART_AT_SCB_IRQ.c **** *
 122:Generated_Source\PSoC4/UART_AT_SCB_IRQ.c **** * Parameters:  
 123:Generated_Source\PSoC4/UART_AT_SCB_IRQ.c **** *   None
 124:Generated_Source\PSoC4/UART_AT_SCB_IRQ.c **** *
 125:Generated_Source\PSoC4/UART_AT_SCB_IRQ.c **** * Return:
 126:Generated_Source\PSoC4/UART_AT_SCB_IRQ.c **** *   None
 127:Generated_Source\PSoC4/UART_AT_SCB_IRQ.c **** *
ARM GAS  C:\Users\ADMINI~1\AppData\Local\Temp\ccxwVqSg.s 			page 5


 128:Generated_Source\PSoC4/UART_AT_SCB_IRQ.c **** *******************************************************************************/
 129:Generated_Source\PSoC4/UART_AT_SCB_IRQ.c **** void UART_AT_SCB_IRQ_Stop(void)
 130:Generated_Source\PSoC4/UART_AT_SCB_IRQ.c **** {
 102              		.loc 1 130 0
 103              		.cfi_startproc
 104 0000 80B5     		push	{r7, lr}
 105              		.cfi_def_cfa_offset 8
 106              		.cfi_offset 7, -8
 107              		.cfi_offset 14, -4
 108 0002 00AF     		add	r7, sp, #0
 109              		.cfi_def_cfa_register 7
 131:Generated_Source\PSoC4/UART_AT_SCB_IRQ.c ****     /* Disable this interrupt. */
 132:Generated_Source\PSoC4/UART_AT_SCB_IRQ.c ****     UART_AT_SCB_IRQ_Disable();
 110              		.loc 1 132 0
 111 0004 FFF7FEFF 		bl	UART_AT_SCB_IRQ_Disable
 133:Generated_Source\PSoC4/UART_AT_SCB_IRQ.c **** 
 134:Generated_Source\PSoC4/UART_AT_SCB_IRQ.c ****     /* Set the ISR to point to the passive one. */
 135:Generated_Source\PSoC4/UART_AT_SCB_IRQ.c ****     UART_AT_SCB_IRQ_SetVector(&IntDefaultHandler);
 112              		.loc 1 135 0
 113 0008 024B     		ldr	r3, .L6
 114 000a 181C     		mov	r0, r3
 115 000c FFF7FEFF 		bl	UART_AT_SCB_IRQ_SetVector
 136:Generated_Source\PSoC4/UART_AT_SCB_IRQ.c **** }
 116              		.loc 1 136 0
 117 0010 BD46     		mov	sp, r7
 118              		@ sp needed
 119 0012 80BD     		pop	{r7, pc}
 120              	.L7:
 121              		.align	2
 122              	.L6:
 123 0014 00000000 		.word	IntDefaultHandler
 124              		.cfi_endproc
 125              	.LFE4:
 126              		.size	UART_AT_SCB_IRQ_Stop, .-UART_AT_SCB_IRQ_Stop
 127              		.section	.text.UART_AT_SCB_IRQ_SetVector,"ax",%progbits
 128              		.align	2
 129              		.global	UART_AT_SCB_IRQ_SetVector
 130              		.code	16
 131              		.thumb_func
 132              		.type	UART_AT_SCB_IRQ_SetVector, %function
 133              	UART_AT_SCB_IRQ_SetVector:
 134              	.LFB5:
 137:Generated_Source\PSoC4/UART_AT_SCB_IRQ.c **** 
 138:Generated_Source\PSoC4/UART_AT_SCB_IRQ.c **** 
 139:Generated_Source\PSoC4/UART_AT_SCB_IRQ.c **** 
 140:Generated_Source\PSoC4/UART_AT_SCB_IRQ.c **** /*******************************************************************************
 141:Generated_Source\PSoC4/UART_AT_SCB_IRQ.c **** * Function Name: UART_AT_SCB_IRQ_SetVector
 142:Generated_Source\PSoC4/UART_AT_SCB_IRQ.c **** ********************************************************************************
 143:Generated_Source\PSoC4/UART_AT_SCB_IRQ.c **** *
 144:Generated_Source\PSoC4/UART_AT_SCB_IRQ.c **** * Summary:
 145:Generated_Source\PSoC4/UART_AT_SCB_IRQ.c **** *   Change the ISR vector for the Interrupt. Note calling UART_AT_SCB_IRQ_Start
 146:Generated_Source\PSoC4/UART_AT_SCB_IRQ.c **** *   will override any effect this method would have had. To set the vector 
 147:Generated_Source\PSoC4/UART_AT_SCB_IRQ.c **** *   before the component has been started use UART_AT_SCB_IRQ_StartEx instead.
 148:Generated_Source\PSoC4/UART_AT_SCB_IRQ.c **** * 
 149:Generated_Source\PSoC4/UART_AT_SCB_IRQ.c **** *   When defining ISR functions, the CY_ISR and CY_ISR_PROTO macros should be 
 150:Generated_Source\PSoC4/UART_AT_SCB_IRQ.c **** *   used to provide consistent definition across compilers:
 151:Generated_Source\PSoC4/UART_AT_SCB_IRQ.c **** *
ARM GAS  C:\Users\ADMINI~1\AppData\Local\Temp\ccxwVqSg.s 			page 6


 152:Generated_Source\PSoC4/UART_AT_SCB_IRQ.c **** *   Function definition example:
 153:Generated_Source\PSoC4/UART_AT_SCB_IRQ.c **** *   CY_ISR(MyISR)
 154:Generated_Source\PSoC4/UART_AT_SCB_IRQ.c **** *   {
 155:Generated_Source\PSoC4/UART_AT_SCB_IRQ.c **** *   }
 156:Generated_Source\PSoC4/UART_AT_SCB_IRQ.c **** *
 157:Generated_Source\PSoC4/UART_AT_SCB_IRQ.c **** *   Function prototype example:
 158:Generated_Source\PSoC4/UART_AT_SCB_IRQ.c **** *     CY_ISR_PROTO(MyISR);
 159:Generated_Source\PSoC4/UART_AT_SCB_IRQ.c **** *
 160:Generated_Source\PSoC4/UART_AT_SCB_IRQ.c **** * Parameters:
 161:Generated_Source\PSoC4/UART_AT_SCB_IRQ.c **** *   address: Address of the ISR to set in the interrupt vector table.
 162:Generated_Source\PSoC4/UART_AT_SCB_IRQ.c **** *
 163:Generated_Source\PSoC4/UART_AT_SCB_IRQ.c **** * Return:
 164:Generated_Source\PSoC4/UART_AT_SCB_IRQ.c **** *   None
 165:Generated_Source\PSoC4/UART_AT_SCB_IRQ.c **** *
 166:Generated_Source\PSoC4/UART_AT_SCB_IRQ.c **** *******************************************************************************/
 167:Generated_Source\PSoC4/UART_AT_SCB_IRQ.c **** void UART_AT_SCB_IRQ_SetVector(cyisraddress address)
 168:Generated_Source\PSoC4/UART_AT_SCB_IRQ.c **** {
 135              		.loc 1 168 0
 136              		.cfi_startproc
 137 0000 80B5     		push	{r7, lr}
 138              		.cfi_def_cfa_offset 8
 139              		.cfi_offset 7, -8
 140              		.cfi_offset 14, -4
 141 0002 82B0     		sub	sp, sp, #8
 142              		.cfi_def_cfa_offset 16
 143 0004 00AF     		add	r7, sp, #0
 144              		.cfi_def_cfa_register 7
 145 0006 7860     		str	r0, [r7, #4]
 169:Generated_Source\PSoC4/UART_AT_SCB_IRQ.c ****     CyRamVectors[CYINT_IRQ_BASE + UART_AT_SCB_IRQ__INTC_NUMBER] = address;
 146              		.loc 1 169 0
 147 0008 024B     		ldr	r3, .L9
 148 000a 7A68     		ldr	r2, [r7, #4]
 149 000c 5A66     		str	r2, [r3, #100]
 170:Generated_Source\PSoC4/UART_AT_SCB_IRQ.c **** }
 150              		.loc 1 170 0
 151 000e BD46     		mov	sp, r7
 152 0010 02B0     		add	sp, sp, #8
 153              		@ sp needed
 154 0012 80BD     		pop	{r7, pc}
 155              	.L10:
 156              		.align	2
 157              	.L9:
 158 0014 00000000 		.word	CyRamVectors
 159              		.cfi_endproc
 160              	.LFE5:
 161              		.size	UART_AT_SCB_IRQ_SetVector, .-UART_AT_SCB_IRQ_SetVector
 162              		.section	.text.UART_AT_SCB_IRQ_GetVector,"ax",%progbits
 163              		.align	2
 164              		.global	UART_AT_SCB_IRQ_GetVector
 165              		.code	16
 166              		.thumb_func
 167              		.type	UART_AT_SCB_IRQ_GetVector, %function
 168              	UART_AT_SCB_IRQ_GetVector:
 169              	.LFB6:
 171:Generated_Source\PSoC4/UART_AT_SCB_IRQ.c **** 
 172:Generated_Source\PSoC4/UART_AT_SCB_IRQ.c **** 
 173:Generated_Source\PSoC4/UART_AT_SCB_IRQ.c **** /*******************************************************************************
ARM GAS  C:\Users\ADMINI~1\AppData\Local\Temp\ccxwVqSg.s 			page 7


 174:Generated_Source\PSoC4/UART_AT_SCB_IRQ.c **** * Function Name: UART_AT_SCB_IRQ_GetVector
 175:Generated_Source\PSoC4/UART_AT_SCB_IRQ.c **** ********************************************************************************
 176:Generated_Source\PSoC4/UART_AT_SCB_IRQ.c **** *
 177:Generated_Source\PSoC4/UART_AT_SCB_IRQ.c **** * Summary:
 178:Generated_Source\PSoC4/UART_AT_SCB_IRQ.c **** *   Gets the "address" of the current ISR vector for the Interrupt.
 179:Generated_Source\PSoC4/UART_AT_SCB_IRQ.c **** *
 180:Generated_Source\PSoC4/UART_AT_SCB_IRQ.c **** * Parameters:
 181:Generated_Source\PSoC4/UART_AT_SCB_IRQ.c **** *   None
 182:Generated_Source\PSoC4/UART_AT_SCB_IRQ.c **** *
 183:Generated_Source\PSoC4/UART_AT_SCB_IRQ.c **** * Return:
 184:Generated_Source\PSoC4/UART_AT_SCB_IRQ.c **** *   Address of the ISR in the interrupt vector table.
 185:Generated_Source\PSoC4/UART_AT_SCB_IRQ.c **** *
 186:Generated_Source\PSoC4/UART_AT_SCB_IRQ.c **** *******************************************************************************/
 187:Generated_Source\PSoC4/UART_AT_SCB_IRQ.c **** cyisraddress UART_AT_SCB_IRQ_GetVector(void)
 188:Generated_Source\PSoC4/UART_AT_SCB_IRQ.c **** {
 170              		.loc 1 188 0
 171              		.cfi_startproc
 172 0000 80B5     		push	{r7, lr}
 173              		.cfi_def_cfa_offset 8
 174              		.cfi_offset 7, -8
 175              		.cfi_offset 14, -4
 176 0002 00AF     		add	r7, sp, #0
 177              		.cfi_def_cfa_register 7
 189:Generated_Source\PSoC4/UART_AT_SCB_IRQ.c ****     return CyRamVectors[CYINT_IRQ_BASE + UART_AT_SCB_IRQ__INTC_NUMBER];
 178              		.loc 1 189 0
 179 0004 024B     		ldr	r3, .L13
 180 0006 5B6E     		ldr	r3, [r3, #100]
 190:Generated_Source\PSoC4/UART_AT_SCB_IRQ.c **** }
 181              		.loc 1 190 0
 182 0008 181C     		mov	r0, r3
 183 000a BD46     		mov	sp, r7
 184              		@ sp needed
 185 000c 80BD     		pop	{r7, pc}
 186              	.L14:
 187 000e C046     		.align	2
 188              	.L13:
 189 0010 00000000 		.word	CyRamVectors
 190              		.cfi_endproc
 191              	.LFE6:
 192              		.size	UART_AT_SCB_IRQ_GetVector, .-UART_AT_SCB_IRQ_GetVector
 193              		.section	.text.UART_AT_SCB_IRQ_SetPriority,"ax",%progbits
 194              		.align	2
 195              		.global	UART_AT_SCB_IRQ_SetPriority
 196              		.code	16
 197              		.thumb_func
 198              		.type	UART_AT_SCB_IRQ_SetPriority, %function
 199              	UART_AT_SCB_IRQ_SetPriority:
 200              	.LFB7:
 191:Generated_Source\PSoC4/UART_AT_SCB_IRQ.c **** 
 192:Generated_Source\PSoC4/UART_AT_SCB_IRQ.c **** 
 193:Generated_Source\PSoC4/UART_AT_SCB_IRQ.c **** /*******************************************************************************
 194:Generated_Source\PSoC4/UART_AT_SCB_IRQ.c **** * Function Name: UART_AT_SCB_IRQ_SetPriority
 195:Generated_Source\PSoC4/UART_AT_SCB_IRQ.c **** ********************************************************************************
 196:Generated_Source\PSoC4/UART_AT_SCB_IRQ.c **** *
 197:Generated_Source\PSoC4/UART_AT_SCB_IRQ.c **** * Summary:
 198:Generated_Source\PSoC4/UART_AT_SCB_IRQ.c **** *   Sets the Priority of the Interrupt. 
 199:Generated_Source\PSoC4/UART_AT_SCB_IRQ.c **** *
ARM GAS  C:\Users\ADMINI~1\AppData\Local\Temp\ccxwVqSg.s 			page 8


 200:Generated_Source\PSoC4/UART_AT_SCB_IRQ.c **** *   Note calling UART_AT_SCB_IRQ_Start or UART_AT_SCB_IRQ_StartEx will 
 201:Generated_Source\PSoC4/UART_AT_SCB_IRQ.c **** *   override any effect this API would have had. This API should only be called
 202:Generated_Source\PSoC4/UART_AT_SCB_IRQ.c **** *   after UART_AT_SCB_IRQ_Start or UART_AT_SCB_IRQ_StartEx has been called. 
 203:Generated_Source\PSoC4/UART_AT_SCB_IRQ.c **** *   To set the initial priority for the component, use the Design-Wide Resources
 204:Generated_Source\PSoC4/UART_AT_SCB_IRQ.c **** *   Interrupt Editor.
 205:Generated_Source\PSoC4/UART_AT_SCB_IRQ.c **** *
 206:Generated_Source\PSoC4/UART_AT_SCB_IRQ.c **** *   Note This API has no effect on Non-maskable interrupt NMI).
 207:Generated_Source\PSoC4/UART_AT_SCB_IRQ.c **** *
 208:Generated_Source\PSoC4/UART_AT_SCB_IRQ.c **** * Parameters:
 209:Generated_Source\PSoC4/UART_AT_SCB_IRQ.c **** *   priority: Priority of the interrupt, 0 being the highest priority
 210:Generated_Source\PSoC4/UART_AT_SCB_IRQ.c **** *             PSoC 3 and PSoC 5LP: Priority is from 0 to 7.
 211:Generated_Source\PSoC4/UART_AT_SCB_IRQ.c **** *             PSoC 4: Priority is from 0 to 3.
 212:Generated_Source\PSoC4/UART_AT_SCB_IRQ.c **** *
 213:Generated_Source\PSoC4/UART_AT_SCB_IRQ.c **** * Return:
 214:Generated_Source\PSoC4/UART_AT_SCB_IRQ.c **** *   None
 215:Generated_Source\PSoC4/UART_AT_SCB_IRQ.c **** *
 216:Generated_Source\PSoC4/UART_AT_SCB_IRQ.c **** *******************************************************************************/
 217:Generated_Source\PSoC4/UART_AT_SCB_IRQ.c **** void UART_AT_SCB_IRQ_SetPriority(uint8 priority)
 218:Generated_Source\PSoC4/UART_AT_SCB_IRQ.c **** {
 201              		.loc 1 218 0
 202              		.cfi_startproc
 203 0000 90B5     		push	{r4, r7, lr}
 204              		.cfi_def_cfa_offset 12
 205              		.cfi_offset 4, -12
 206              		.cfi_offset 7, -8
 207              		.cfi_offset 14, -4
 208 0002 85B0     		sub	sp, sp, #20
 209              		.cfi_def_cfa_offset 32
 210 0004 00AF     		add	r7, sp, #0
 211              		.cfi_def_cfa_register 7
 212 0006 021C     		mov	r2, r0
 213 0008 FB1D     		add	r3, r7, #7
 214 000a 1A70     		strb	r2, [r3]
 219:Generated_Source\PSoC4/UART_AT_SCB_IRQ.c **** 	uint8 interruptState;
 220:Generated_Source\PSoC4/UART_AT_SCB_IRQ.c ****     uint32 priorityOffset = ((UART_AT_SCB_IRQ__INTC_NUMBER % 4u) * 8u) + 6u;
 215              		.loc 1 220 0
 216 000c 0E23     		mov	r3, #14
 217 000e FB60     		str	r3, [r7, #12]
 221:Generated_Source\PSoC4/UART_AT_SCB_IRQ.c ****     
 222:Generated_Source\PSoC4/UART_AT_SCB_IRQ.c **** 	interruptState = CyEnterCriticalSection();
 218              		.loc 1 222 0
 219 0010 0B23     		mov	r3, #11
 220 0012 FC18     		add	r4, r7, r3
 221 0014 FFF7FEFF 		bl	CyEnterCriticalSection
 222 0018 031C     		mov	r3, r0
 223 001a 2370     		strb	r3, [r4]
 223:Generated_Source\PSoC4/UART_AT_SCB_IRQ.c ****     *UART_AT_SCB_IRQ_INTC_PRIOR = (*UART_AT_SCB_IRQ_INTC_PRIOR & (uint32)(~UART_AT_SCB_IRQ__INTC_PR
 224              		.loc 1 223 0
 225 001c 0A4B     		ldr	r3, .L16
 226 001e 0A4A     		ldr	r2, .L16
 227 0020 1268     		ldr	r2, [r2]
 228 0022 0A49     		ldr	r1, .L16+4
 229 0024 1140     		and	r1, r2
 224:Generated_Source\PSoC4/UART_AT_SCB_IRQ.c ****                                     ((uint32)priority << priorityOffset);
 230              		.loc 1 224 0
 231 0026 FA1D     		add	r2, r7, #7
 232 0028 1078     		ldrb	r0, [r2]
ARM GAS  C:\Users\ADMINI~1\AppData\Local\Temp\ccxwVqSg.s 			page 9


 233 002a FA68     		ldr	r2, [r7, #12]
 234 002c 9040     		lsl	r0, r0, r2
 235 002e 021C     		mov	r2, r0
 223:Generated_Source\PSoC4/UART_AT_SCB_IRQ.c ****     *UART_AT_SCB_IRQ_INTC_PRIOR = (*UART_AT_SCB_IRQ_INTC_PRIOR & (uint32)(~UART_AT_SCB_IRQ__INTC_PR
 236              		.loc 1 223 0
 237 0030 0A43     		orr	r2, r1
 238 0032 1A60     		str	r2, [r3]
 225:Generated_Source\PSoC4/UART_AT_SCB_IRQ.c **** 	CyExitCriticalSection(interruptState);
 239              		.loc 1 225 0
 240 0034 0B23     		mov	r3, #11
 241 0036 FB18     		add	r3, r7, r3
 242 0038 1B78     		ldrb	r3, [r3]
 243 003a 181C     		mov	r0, r3
 244 003c FFF7FEFF 		bl	CyExitCriticalSection
 226:Generated_Source\PSoC4/UART_AT_SCB_IRQ.c **** }
 245              		.loc 1 226 0
 246 0040 BD46     		mov	sp, r7
 247 0042 05B0     		add	sp, sp, #20
 248              		@ sp needed
 249 0044 90BD     		pop	{r4, r7, pc}
 250              	.L17:
 251 0046 C046     		.align	2
 252              	.L16:
 253 0048 08E400E0 		.word	-536812536
 254 004c FF3FFFFF 		.word	-49153
 255              		.cfi_endproc
 256              	.LFE7:
 257              		.size	UART_AT_SCB_IRQ_SetPriority, .-UART_AT_SCB_IRQ_SetPriority
 258              		.section	.text.UART_AT_SCB_IRQ_GetPriority,"ax",%progbits
 259              		.align	2
 260              		.global	UART_AT_SCB_IRQ_GetPriority
 261              		.code	16
 262              		.thumb_func
 263              		.type	UART_AT_SCB_IRQ_GetPriority, %function
 264              	UART_AT_SCB_IRQ_GetPriority:
 265              	.LFB8:
 227:Generated_Source\PSoC4/UART_AT_SCB_IRQ.c **** 
 228:Generated_Source\PSoC4/UART_AT_SCB_IRQ.c **** 
 229:Generated_Source\PSoC4/UART_AT_SCB_IRQ.c **** /*******************************************************************************
 230:Generated_Source\PSoC4/UART_AT_SCB_IRQ.c **** * Function Name: UART_AT_SCB_IRQ_GetPriority
 231:Generated_Source\PSoC4/UART_AT_SCB_IRQ.c **** ********************************************************************************
 232:Generated_Source\PSoC4/UART_AT_SCB_IRQ.c **** *
 233:Generated_Source\PSoC4/UART_AT_SCB_IRQ.c **** * Summary:
 234:Generated_Source\PSoC4/UART_AT_SCB_IRQ.c **** *   Gets the Priority of the Interrupt.
 235:Generated_Source\PSoC4/UART_AT_SCB_IRQ.c **** *
 236:Generated_Source\PSoC4/UART_AT_SCB_IRQ.c **** * Parameters:
 237:Generated_Source\PSoC4/UART_AT_SCB_IRQ.c **** *   None
 238:Generated_Source\PSoC4/UART_AT_SCB_IRQ.c **** *
 239:Generated_Source\PSoC4/UART_AT_SCB_IRQ.c **** * Return:
 240:Generated_Source\PSoC4/UART_AT_SCB_IRQ.c **** *   Priority of the interrupt, 0 being the highest priority
 241:Generated_Source\PSoC4/UART_AT_SCB_IRQ.c **** *    PSoC 3 and PSoC 5LP: Priority is from 0 to 7.
 242:Generated_Source\PSoC4/UART_AT_SCB_IRQ.c **** *    PSoC 4: Priority is from 0 to 3.
 243:Generated_Source\PSoC4/UART_AT_SCB_IRQ.c **** *
 244:Generated_Source\PSoC4/UART_AT_SCB_IRQ.c **** *******************************************************************************/
 245:Generated_Source\PSoC4/UART_AT_SCB_IRQ.c **** uint8 UART_AT_SCB_IRQ_GetPriority(void)
 246:Generated_Source\PSoC4/UART_AT_SCB_IRQ.c **** {
 266              		.loc 1 246 0
ARM GAS  C:\Users\ADMINI~1\AppData\Local\Temp\ccxwVqSg.s 			page 10


 267              		.cfi_startproc
 268 0000 80B5     		push	{r7, lr}
 269              		.cfi_def_cfa_offset 8
 270              		.cfi_offset 7, -8
 271              		.cfi_offset 14, -4
 272 0002 82B0     		sub	sp, sp, #8
 273              		.cfi_def_cfa_offset 16
 274 0004 00AF     		add	r7, sp, #0
 275              		.cfi_def_cfa_register 7
 247:Generated_Source\PSoC4/UART_AT_SCB_IRQ.c ****     uint32 priority;
 248:Generated_Source\PSoC4/UART_AT_SCB_IRQ.c **** 	uint32 priorityOffset = ((UART_AT_SCB_IRQ__INTC_NUMBER % 4u) * 8u) + 6u;
 276              		.loc 1 248 0
 277 0006 0E23     		mov	r3, #14
 278 0008 7B60     		str	r3, [r7, #4]
 249:Generated_Source\PSoC4/UART_AT_SCB_IRQ.c **** 
 250:Generated_Source\PSoC4/UART_AT_SCB_IRQ.c ****     priority = (*UART_AT_SCB_IRQ_INTC_PRIOR & UART_AT_SCB_IRQ__INTC_PRIOR_MASK) >> priorityOffset;
 279              		.loc 1 250 0
 280 000a 074B     		ldr	r3, .L20
 281 000c 1A68     		ldr	r2, [r3]
 282 000e C023     		mov	r3, #192
 283 0010 1B02     		lsl	r3, r3, #8
 284 0012 1A40     		and	r2, r3
 285 0014 7B68     		ldr	r3, [r7, #4]
 286 0016 DA40     		lsr	r2, r2, r3
 287 0018 131C     		mov	r3, r2
 288 001a 3B60     		str	r3, [r7]
 251:Generated_Source\PSoC4/UART_AT_SCB_IRQ.c **** 
 252:Generated_Source\PSoC4/UART_AT_SCB_IRQ.c ****     return (uint8)priority;
 289              		.loc 1 252 0
 290 001c 3B68     		ldr	r3, [r7]
 291 001e DBB2     		uxtb	r3, r3
 253:Generated_Source\PSoC4/UART_AT_SCB_IRQ.c **** }
 292              		.loc 1 253 0
 293 0020 181C     		mov	r0, r3
 294 0022 BD46     		mov	sp, r7
 295 0024 02B0     		add	sp, sp, #8
 296              		@ sp needed
 297 0026 80BD     		pop	{r7, pc}
 298              	.L21:
 299              		.align	2
 300              	.L20:
 301 0028 08E400E0 		.word	-536812536
 302              		.cfi_endproc
 303              	.LFE8:
 304              		.size	UART_AT_SCB_IRQ_GetPriority, .-UART_AT_SCB_IRQ_GetPriority
 305              		.section	.text.UART_AT_SCB_IRQ_Enable,"ax",%progbits
 306              		.align	2
 307              		.global	UART_AT_SCB_IRQ_Enable
 308              		.code	16
 309              		.thumb_func
 310              		.type	UART_AT_SCB_IRQ_Enable, %function
 311              	UART_AT_SCB_IRQ_Enable:
 312              	.LFB9:
 254:Generated_Source\PSoC4/UART_AT_SCB_IRQ.c **** 
 255:Generated_Source\PSoC4/UART_AT_SCB_IRQ.c **** 
 256:Generated_Source\PSoC4/UART_AT_SCB_IRQ.c **** /*******************************************************************************
 257:Generated_Source\PSoC4/UART_AT_SCB_IRQ.c **** * Function Name: UART_AT_SCB_IRQ_Enable
ARM GAS  C:\Users\ADMINI~1\AppData\Local\Temp\ccxwVqSg.s 			page 11


 258:Generated_Source\PSoC4/UART_AT_SCB_IRQ.c **** ********************************************************************************
 259:Generated_Source\PSoC4/UART_AT_SCB_IRQ.c **** *
 260:Generated_Source\PSoC4/UART_AT_SCB_IRQ.c **** * Summary:
 261:Generated_Source\PSoC4/UART_AT_SCB_IRQ.c **** *   Enables the interrupt to the interrupt controller. Do not call this function
 262:Generated_Source\PSoC4/UART_AT_SCB_IRQ.c **** *   unless ISR_Start() has been called or the functionality of the ISR_Start() 
 263:Generated_Source\PSoC4/UART_AT_SCB_IRQ.c **** *   function, which sets the vector and the priority, has been called.
 264:Generated_Source\PSoC4/UART_AT_SCB_IRQ.c **** *
 265:Generated_Source\PSoC4/UART_AT_SCB_IRQ.c **** * Parameters:
 266:Generated_Source\PSoC4/UART_AT_SCB_IRQ.c **** *   None
 267:Generated_Source\PSoC4/UART_AT_SCB_IRQ.c **** *
 268:Generated_Source\PSoC4/UART_AT_SCB_IRQ.c **** * Return:
 269:Generated_Source\PSoC4/UART_AT_SCB_IRQ.c **** *   None
 270:Generated_Source\PSoC4/UART_AT_SCB_IRQ.c **** *
 271:Generated_Source\PSoC4/UART_AT_SCB_IRQ.c **** *******************************************************************************/
 272:Generated_Source\PSoC4/UART_AT_SCB_IRQ.c **** void UART_AT_SCB_IRQ_Enable(void)
 273:Generated_Source\PSoC4/UART_AT_SCB_IRQ.c **** {
 313              		.loc 1 273 0
 314              		.cfi_startproc
 315 0000 80B5     		push	{r7, lr}
 316              		.cfi_def_cfa_offset 8
 317              		.cfi_offset 7, -8
 318              		.cfi_offset 14, -4
 319 0002 00AF     		add	r7, sp, #0
 320              		.cfi_def_cfa_register 7
 274:Generated_Source\PSoC4/UART_AT_SCB_IRQ.c ****     /* Enable the general interrupt. */
 275:Generated_Source\PSoC4/UART_AT_SCB_IRQ.c ****     *UART_AT_SCB_IRQ_INTC_SET_EN = UART_AT_SCB_IRQ__INTC_MASK;
 321              		.loc 1 275 0
 322 0004 024B     		ldr	r3, .L23
 323 0006 8022     		mov	r2, #128
 324 0008 9200     		lsl	r2, r2, #2
 325 000a 1A60     		str	r2, [r3]
 276:Generated_Source\PSoC4/UART_AT_SCB_IRQ.c **** }
 326              		.loc 1 276 0
 327 000c BD46     		mov	sp, r7
 328              		@ sp needed
 329 000e 80BD     		pop	{r7, pc}
 330              	.L24:
 331              		.align	2
 332              	.L23:
 333 0010 00E100E0 		.word	-536813312
 334              		.cfi_endproc
 335              	.LFE9:
 336              		.size	UART_AT_SCB_IRQ_Enable, .-UART_AT_SCB_IRQ_Enable
 337              		.section	.text.UART_AT_SCB_IRQ_GetState,"ax",%progbits
 338              		.align	2
 339              		.global	UART_AT_SCB_IRQ_GetState
 340              		.code	16
 341              		.thumb_func
 342              		.type	UART_AT_SCB_IRQ_GetState, %function
 343              	UART_AT_SCB_IRQ_GetState:
 344              	.LFB10:
 277:Generated_Source\PSoC4/UART_AT_SCB_IRQ.c **** 
 278:Generated_Source\PSoC4/UART_AT_SCB_IRQ.c **** 
 279:Generated_Source\PSoC4/UART_AT_SCB_IRQ.c **** /*******************************************************************************
 280:Generated_Source\PSoC4/UART_AT_SCB_IRQ.c **** * Function Name: UART_AT_SCB_IRQ_GetState
 281:Generated_Source\PSoC4/UART_AT_SCB_IRQ.c **** ********************************************************************************
 282:Generated_Source\PSoC4/UART_AT_SCB_IRQ.c **** *
ARM GAS  C:\Users\ADMINI~1\AppData\Local\Temp\ccxwVqSg.s 			page 12


 283:Generated_Source\PSoC4/UART_AT_SCB_IRQ.c **** * Summary:
 284:Generated_Source\PSoC4/UART_AT_SCB_IRQ.c **** *   Gets the state (enabled, disabled) of the Interrupt.
 285:Generated_Source\PSoC4/UART_AT_SCB_IRQ.c **** *
 286:Generated_Source\PSoC4/UART_AT_SCB_IRQ.c **** * Parameters:
 287:Generated_Source\PSoC4/UART_AT_SCB_IRQ.c **** *   None
 288:Generated_Source\PSoC4/UART_AT_SCB_IRQ.c **** *
 289:Generated_Source\PSoC4/UART_AT_SCB_IRQ.c **** * Return:
 290:Generated_Source\PSoC4/UART_AT_SCB_IRQ.c **** *   1 if enabled, 0 if disabled.
 291:Generated_Source\PSoC4/UART_AT_SCB_IRQ.c **** *
 292:Generated_Source\PSoC4/UART_AT_SCB_IRQ.c **** *******************************************************************************/
 293:Generated_Source\PSoC4/UART_AT_SCB_IRQ.c **** uint8 UART_AT_SCB_IRQ_GetState(void)
 294:Generated_Source\PSoC4/UART_AT_SCB_IRQ.c **** {
 345              		.loc 1 294 0
 346              		.cfi_startproc
 347 0000 80B5     		push	{r7, lr}
 348              		.cfi_def_cfa_offset 8
 349              		.cfi_offset 7, -8
 350              		.cfi_offset 14, -4
 351 0002 00AF     		add	r7, sp, #0
 352              		.cfi_def_cfa_register 7
 295:Generated_Source\PSoC4/UART_AT_SCB_IRQ.c ****     /* Get the state of the general interrupt. */
 296:Generated_Source\PSoC4/UART_AT_SCB_IRQ.c ****     return ((*UART_AT_SCB_IRQ_INTC_SET_EN & (uint32)UART_AT_SCB_IRQ__INTC_MASK) != 0u) ? 1u:0u;
 353              		.loc 1 296 0
 354 0004 054B     		ldr	r3, .L29
 355 0006 1A68     		ldr	r2, [r3]
 356 0008 8023     		mov	r3, #128
 357 000a 9B00     		lsl	r3, r3, #2
 358 000c 1340     		and	r3, r2
 359 000e 01D0     		beq	.L26
 360              		.loc 1 296 0 is_stmt 0 discriminator 1
 361 0010 0123     		mov	r3, #1
 362 0012 00E0     		b	.L27
 363              	.L26:
 364              		.loc 1 296 0 discriminator 2
 365 0014 0023     		mov	r3, #0
 366              	.L27:
 297:Generated_Source\PSoC4/UART_AT_SCB_IRQ.c **** }
 367              		.loc 1 297 0 is_stmt 1 discriminator 4
 368 0016 181C     		mov	r0, r3
 369 0018 BD46     		mov	sp, r7
 370              		@ sp needed
 371 001a 80BD     		pop	{r7, pc}
 372              	.L30:
 373              		.align	2
 374              	.L29:
 375 001c 00E100E0 		.word	-536813312
 376              		.cfi_endproc
 377              	.LFE10:
 378              		.size	UART_AT_SCB_IRQ_GetState, .-UART_AT_SCB_IRQ_GetState
 379              		.section	.text.UART_AT_SCB_IRQ_Disable,"ax",%progbits
 380              		.align	2
 381              		.global	UART_AT_SCB_IRQ_Disable
 382              		.code	16
 383              		.thumb_func
 384              		.type	UART_AT_SCB_IRQ_Disable, %function
 385              	UART_AT_SCB_IRQ_Disable:
 386              	.LFB11:
ARM GAS  C:\Users\ADMINI~1\AppData\Local\Temp\ccxwVqSg.s 			page 13


 298:Generated_Source\PSoC4/UART_AT_SCB_IRQ.c **** 
 299:Generated_Source\PSoC4/UART_AT_SCB_IRQ.c **** 
 300:Generated_Source\PSoC4/UART_AT_SCB_IRQ.c **** /*******************************************************************************
 301:Generated_Source\PSoC4/UART_AT_SCB_IRQ.c **** * Function Name: UART_AT_SCB_IRQ_Disable
 302:Generated_Source\PSoC4/UART_AT_SCB_IRQ.c **** ********************************************************************************
 303:Generated_Source\PSoC4/UART_AT_SCB_IRQ.c **** *
 304:Generated_Source\PSoC4/UART_AT_SCB_IRQ.c **** * Summary:
 305:Generated_Source\PSoC4/UART_AT_SCB_IRQ.c **** *   Disables the Interrupt in the interrupt controller.
 306:Generated_Source\PSoC4/UART_AT_SCB_IRQ.c **** *
 307:Generated_Source\PSoC4/UART_AT_SCB_IRQ.c **** * Parameters:
 308:Generated_Source\PSoC4/UART_AT_SCB_IRQ.c **** *   None
 309:Generated_Source\PSoC4/UART_AT_SCB_IRQ.c **** *
 310:Generated_Source\PSoC4/UART_AT_SCB_IRQ.c **** * Return:
 311:Generated_Source\PSoC4/UART_AT_SCB_IRQ.c **** *   None
 312:Generated_Source\PSoC4/UART_AT_SCB_IRQ.c **** *
 313:Generated_Source\PSoC4/UART_AT_SCB_IRQ.c **** *******************************************************************************/
 314:Generated_Source\PSoC4/UART_AT_SCB_IRQ.c **** void UART_AT_SCB_IRQ_Disable(void)
 315:Generated_Source\PSoC4/UART_AT_SCB_IRQ.c **** {
 387              		.loc 1 315 0
 388              		.cfi_startproc
 389 0000 80B5     		push	{r7, lr}
 390              		.cfi_def_cfa_offset 8
 391              		.cfi_offset 7, -8
 392              		.cfi_offset 14, -4
 393 0002 00AF     		add	r7, sp, #0
 394              		.cfi_def_cfa_register 7
 316:Generated_Source\PSoC4/UART_AT_SCB_IRQ.c ****     /* Disable the general interrupt. */
 317:Generated_Source\PSoC4/UART_AT_SCB_IRQ.c ****     *UART_AT_SCB_IRQ_INTC_CLR_EN = UART_AT_SCB_IRQ__INTC_MASK;
 395              		.loc 1 317 0
 396 0004 024B     		ldr	r3, .L32
 397 0006 8022     		mov	r2, #128
 398 0008 9200     		lsl	r2, r2, #2
 399 000a 1A60     		str	r2, [r3]
 318:Generated_Source\PSoC4/UART_AT_SCB_IRQ.c **** }
 400              		.loc 1 318 0
 401 000c BD46     		mov	sp, r7
 402              		@ sp needed
 403 000e 80BD     		pop	{r7, pc}
 404              	.L33:
 405              		.align	2
 406              	.L32:
 407 0010 80E100E0 		.word	-536813184
 408              		.cfi_endproc
 409              	.LFE11:
 410              		.size	UART_AT_SCB_IRQ_Disable, .-UART_AT_SCB_IRQ_Disable
 411              		.section	.text.UART_AT_SCB_IRQ_SetPending,"ax",%progbits
 412              		.align	2
 413              		.global	UART_AT_SCB_IRQ_SetPending
 414              		.code	16
 415              		.thumb_func
 416              		.type	UART_AT_SCB_IRQ_SetPending, %function
 417              	UART_AT_SCB_IRQ_SetPending:
 418              	.LFB12:
 319:Generated_Source\PSoC4/UART_AT_SCB_IRQ.c **** 
 320:Generated_Source\PSoC4/UART_AT_SCB_IRQ.c **** 
 321:Generated_Source\PSoC4/UART_AT_SCB_IRQ.c **** /*******************************************************************************
 322:Generated_Source\PSoC4/UART_AT_SCB_IRQ.c **** * Function Name: UART_AT_SCB_IRQ_SetPending
ARM GAS  C:\Users\ADMINI~1\AppData\Local\Temp\ccxwVqSg.s 			page 14


 323:Generated_Source\PSoC4/UART_AT_SCB_IRQ.c **** ********************************************************************************
 324:Generated_Source\PSoC4/UART_AT_SCB_IRQ.c **** *
 325:Generated_Source\PSoC4/UART_AT_SCB_IRQ.c **** * Summary:
 326:Generated_Source\PSoC4/UART_AT_SCB_IRQ.c **** *   Causes the Interrupt to enter the pending state, a software method of
 327:Generated_Source\PSoC4/UART_AT_SCB_IRQ.c **** *   generating the interrupt.
 328:Generated_Source\PSoC4/UART_AT_SCB_IRQ.c **** *
 329:Generated_Source\PSoC4/UART_AT_SCB_IRQ.c **** * Parameters:
 330:Generated_Source\PSoC4/UART_AT_SCB_IRQ.c **** *   None
 331:Generated_Source\PSoC4/UART_AT_SCB_IRQ.c **** *
 332:Generated_Source\PSoC4/UART_AT_SCB_IRQ.c **** * Return:
 333:Generated_Source\PSoC4/UART_AT_SCB_IRQ.c **** *   None
 334:Generated_Source\PSoC4/UART_AT_SCB_IRQ.c **** *
 335:Generated_Source\PSoC4/UART_AT_SCB_IRQ.c **** * Side Effects:
 336:Generated_Source\PSoC4/UART_AT_SCB_IRQ.c **** *   If interrupts are enabled and the interrupt is set up properly, the ISR is
 337:Generated_Source\PSoC4/UART_AT_SCB_IRQ.c **** *   entered (depending on the priority of this interrupt and other pending 
 338:Generated_Source\PSoC4/UART_AT_SCB_IRQ.c **** *   interrupts).
 339:Generated_Source\PSoC4/UART_AT_SCB_IRQ.c **** *
 340:Generated_Source\PSoC4/UART_AT_SCB_IRQ.c **** *******************************************************************************/
 341:Generated_Source\PSoC4/UART_AT_SCB_IRQ.c **** void UART_AT_SCB_IRQ_SetPending(void)
 342:Generated_Source\PSoC4/UART_AT_SCB_IRQ.c **** {
 419              		.loc 1 342 0
 420              		.cfi_startproc
 421 0000 80B5     		push	{r7, lr}
 422              		.cfi_def_cfa_offset 8
 423              		.cfi_offset 7, -8
 424              		.cfi_offset 14, -4
 425 0002 00AF     		add	r7, sp, #0
 426              		.cfi_def_cfa_register 7
 343:Generated_Source\PSoC4/UART_AT_SCB_IRQ.c ****     *UART_AT_SCB_IRQ_INTC_SET_PD = UART_AT_SCB_IRQ__INTC_MASK;
 427              		.loc 1 343 0
 428 0004 024B     		ldr	r3, .L35
 429 0006 8022     		mov	r2, #128
 430 0008 9200     		lsl	r2, r2, #2
 431 000a 1A60     		str	r2, [r3]
 344:Generated_Source\PSoC4/UART_AT_SCB_IRQ.c **** }
 432              		.loc 1 344 0
 433 000c BD46     		mov	sp, r7
 434              		@ sp needed
 435 000e 80BD     		pop	{r7, pc}
 436              	.L36:
 437              		.align	2
 438              	.L35:
 439 0010 00E200E0 		.word	-536813056
 440              		.cfi_endproc
 441              	.LFE12:
 442              		.size	UART_AT_SCB_IRQ_SetPending, .-UART_AT_SCB_IRQ_SetPending
 443              		.section	.text.UART_AT_SCB_IRQ_ClearPending,"ax",%progbits
 444              		.align	2
 445              		.global	UART_AT_SCB_IRQ_ClearPending
 446              		.code	16
 447              		.thumb_func
 448              		.type	UART_AT_SCB_IRQ_ClearPending, %function
 449              	UART_AT_SCB_IRQ_ClearPending:
 450              	.LFB13:
 345:Generated_Source\PSoC4/UART_AT_SCB_IRQ.c **** 
 346:Generated_Source\PSoC4/UART_AT_SCB_IRQ.c **** 
 347:Generated_Source\PSoC4/UART_AT_SCB_IRQ.c **** /*******************************************************************************
ARM GAS  C:\Users\ADMINI~1\AppData\Local\Temp\ccxwVqSg.s 			page 15


 348:Generated_Source\PSoC4/UART_AT_SCB_IRQ.c **** * Function Name: UART_AT_SCB_IRQ_ClearPending
 349:Generated_Source\PSoC4/UART_AT_SCB_IRQ.c **** ********************************************************************************
 350:Generated_Source\PSoC4/UART_AT_SCB_IRQ.c **** *
 351:Generated_Source\PSoC4/UART_AT_SCB_IRQ.c **** * Summary:
 352:Generated_Source\PSoC4/UART_AT_SCB_IRQ.c **** *   Clears a pending interrupt in the interrupt controller.
 353:Generated_Source\PSoC4/UART_AT_SCB_IRQ.c **** *
 354:Generated_Source\PSoC4/UART_AT_SCB_IRQ.c **** *   Note Some interrupt sources are clear-on-read and require the block 
 355:Generated_Source\PSoC4/UART_AT_SCB_IRQ.c **** *   interrupt/status register to be read/cleared with the appropriate block API 
 356:Generated_Source\PSoC4/UART_AT_SCB_IRQ.c **** *   (GPIO, UART, and so on). Otherwise the ISR will continue to remain in 
 357:Generated_Source\PSoC4/UART_AT_SCB_IRQ.c **** *   pending state even though the interrupt itself is cleared using this API.
 358:Generated_Source\PSoC4/UART_AT_SCB_IRQ.c **** *
 359:Generated_Source\PSoC4/UART_AT_SCB_IRQ.c **** * Parameters:
 360:Generated_Source\PSoC4/UART_AT_SCB_IRQ.c **** *   None
 361:Generated_Source\PSoC4/UART_AT_SCB_IRQ.c **** *
 362:Generated_Source\PSoC4/UART_AT_SCB_IRQ.c **** * Return:
 363:Generated_Source\PSoC4/UART_AT_SCB_IRQ.c **** *   None
 364:Generated_Source\PSoC4/UART_AT_SCB_IRQ.c **** *
 365:Generated_Source\PSoC4/UART_AT_SCB_IRQ.c **** *******************************************************************************/
 366:Generated_Source\PSoC4/UART_AT_SCB_IRQ.c **** void UART_AT_SCB_IRQ_ClearPending(void)
 367:Generated_Source\PSoC4/UART_AT_SCB_IRQ.c **** {
 451              		.loc 1 367 0
 452              		.cfi_startproc
 453 0000 80B5     		push	{r7, lr}
 454              		.cfi_def_cfa_offset 8
 455              		.cfi_offset 7, -8
 456              		.cfi_offset 14, -4
 457 0002 00AF     		add	r7, sp, #0
 458              		.cfi_def_cfa_register 7
 368:Generated_Source\PSoC4/UART_AT_SCB_IRQ.c ****     *UART_AT_SCB_IRQ_INTC_CLR_PD = UART_AT_SCB_IRQ__INTC_MASK;
 459              		.loc 1 368 0
 460 0004 024B     		ldr	r3, .L38
 461 0006 8022     		mov	r2, #128
 462 0008 9200     		lsl	r2, r2, #2
 463 000a 1A60     		str	r2, [r3]
 369:Generated_Source\PSoC4/UART_AT_SCB_IRQ.c **** }
 464              		.loc 1 369 0
 465 000c BD46     		mov	sp, r7
 466              		@ sp needed
 467 000e 80BD     		pop	{r7, pc}
 468              	.L39:
 469              		.align	2
 470              	.L38:
 471 0010 80E200E0 		.word	-536812928
 472              		.cfi_endproc
 473              	.LFE13:
 474              		.size	UART_AT_SCB_IRQ_ClearPending, .-UART_AT_SCB_IRQ_ClearPending
 475              		.text
 476              	.Letext0:
 477              		.file 2 "Generated_Source\\PSoC4/cytypes.h"